(dp0
S'crr'
p1
(dp2
I2
(dp3
I2
(dp4
I00
(dp5
S'fold'
p6
F0.0
sS'raise'
p7
F0.0245
sS'check'
p8
F0.9755
ssI01
(dp9
ssI3
(dp10
I00
(dp11
g6
F0.0217
sg7
F0.0
sg8
F0.9783
ssI01
(dp12
g6
F0.0
sg7
F0.0
sg8
F1.0
sssI4
(dp13
I00
(dp14
g6
F0.0064
sg7
F0.0
sg8
F0.9936
ssI01
(dp15
g6
F0.0
sg7
F0.0
sg8
F1.0
sssI5
(dp16
I00
(dp17
g6
F0.0059
sg7
F0.0
sg8
F0.9941
ssI01
(dp18
g6
F0.0
sg7
F0.0
sg8
F1.0
sssI6
(dp19
I00
(dp20
g6
F0.0569
sg7
F0.0
sg8
F0.9431
ssI01
(dp21
g6
F0.0
sg7
F0.0
sg8
F1.0
sssI7
(dp22
I00
(dp23
g6
F0.2697
sg7
F0.0
sg8
F0.7303
ssI01
(dp24
g6
F0.0
sg7
F0.0
sg8
F1.0
sssI8
(dp25
I00
(dp26
g6
F0.1692
sg7
F0.0
sg8
F0.8308
ssI01
(dp27
g6
F0.0
sg7
F0.0
sg8
F1.0
sssI9
(dp28
I00
(dp29
g6
F0.0728
sg7
F0.0
sg8
F0.9272
ssI01
(dp30
g6
F0.0
sg7
F0.0
sg8
F1.0
sssI10
(dp31
I00
(dp32
g6
F0.0541
sg7
F0.0
sg8
F0.9459
ssI01
(dp33
g6
F0.0
sg7
F0.0
sg8
F1.0
sssI11
(dp34
I00
(dp35
g6
F0.0298
sg7
F0.0
sg8
F0.9702
ssI01
(dp36
g6
F0.0
sg7
F0.0
sg8
F1.0
sssI12
(dp37
I00
(dp38
g6
F0.0
sg7
F0.0
sg8
F1.0
ssI01
(dp39
g6
F0.0
sg7
F0.0
sg8
F1.0
sssI13
(dp40
I00
(dp41
g6
F0.0
sg7
F0.0
sg8
F1.0
ssI01
(dp42
g6
F0.0
sg7
F0.0
sg8
F1.0
sssI14
(dp43
I00
(dp44
g6
F0.0
sg7
F0.0847
sg8
F0.9153
ssI01
(dp45
g6
F0.0
sg7
F0.3328
sg8
F0.6672
ssssI3
(dp46
I2
(dp47
I00
(dp48
g6
F0.0217
sg7
F0.0
sg8
F0.9783
ssI01
(dp49
g6
F0.0
sg7
F0.0
sg8
F1.0
sssI3
(dp50
I00
(dp51
g6
F0.0
sg7
F0.3439
sg8
F0.6561
ssI01
(dp52
ssI4
(dp53
I00
(dp54
g6
F0.0
sg7
F0.0
sg8
F1.0
ssI01
(dp55
g6
F0.0
sg7
F0.0345
sg8
F0.9655
sssI5
(dp56
I00
(dp57
g6
F0.0
sg7
F0.0
sg8
F1.0
ssI01
(dp58
g6
F0.0
sg7
F0.1492
sg8
F0.8508
sssI6
(dp59
I00
(dp60
g6
F0.0
sg7
F0.0
sg8
F1.0
ssI01
(dp61
g6
F0.0
sg7
F0.0
sg8
F1.0
sssI7
(dp62
I00
(dp63
g6
F0.0
sg7
F0.0
sg8
F1.0
ssI01
(dp64
g6
F0.0
sg7
F0.0
sg8
F1.0
sssI8
(dp65
I00
(dp66
g6
F0.0435
sg7
F0.0
sg8
F0.9565
ssI01
(dp67
g6
F0.0
sg7
F0.0
sg8
F1.0
sssI9
(dp68
I00
(dp69
g6
F0.0033
sg7
F0.0
sg8
F0.9967
ssI01
(dp70
g6
F0.0
sg7
F0.0
sg8
F1.0
sssI10
(dp71
I00
(dp72
g6
F0.0
sg7
F0.0
sg8
F1.0
ssI01
(dp73
g6
F0.0
sg7
F0.0
sg8
F1.0
sssI11
(dp74
I00
(dp75
g6
F0.0
sg7
F0.0
sg8
F1.0
ssI01
(dp76
g6
F0.0
sg7
F0.0
sg8
F1.0
sssI12
(dp77
I00
(dp78
g6
F0.0
sg7
F0.0
sg8
F1.0
ssI01
(dp79
g6
F0.0
sg7
F0.0
sg8
F1.0
sssI13
(dp80
I00
(dp81
g6
F0.0
sg7
F0.0
sg8
F1.0
ssI01
(dp82
g6
F0.0
sg7
F0.1057
sg8
F0.8943
sssI14
(dp83
I00
(dp84
g6
F0.0
sg7
F0.1721
sg8
F0.8279
ssI01
(dp85
g6
F0.0
sg7
F0.3742
sg8
F0.6258
ssssI4
(dp86
I2
(dp87
I00
(dp88
g6
F0.0064
sg7
F0.0
sg8
F0.9936
ssI01
(dp89
g6
F0.0
sg7
F0.0
sg8
F1.0
sssI3
(dp90
I00
(dp91
g6
F0.0
sg7
F0.0
sg8
F1.0
ssI01
(dp92
g6
F0.0
sg7
F0.0345
sg8
F0.9655
sssI4
(dp93
I00
(dp94
g6
F0.0
sg7
F0.476
sg8
F0.524
ssI01
(dp95
ssI5
(dp96
I00
(dp97
g6
F0.0
sg7
F0.0
sg8
F1.0
ssI01
(dp98
g6
F0.0
sg7
F0.344
sg8
F0.656
sssI6
(dp99
I00
(dp100
g6
F0.0
sg7
F0.0
sg8
F1.0
ssI01
(dp101
g6
F0.0
sg7
F0.2695
sg8
F0.7305
sssI7
(dp102
I00
(dp103
g6
F0.0
sg7
F0.0
sg8
F1.0
ssI01
(dp104
g6
F0.0
sg7
F0.1488
sg8
F0.8512
sssI8
(dp105
I00
(dp106
g6
F0.0
sg7
F0.0
sg8
F1.0
ssI01
(dp107
g6
F0.0
sg7
F0.0
sg8
F1.0
sssI9
(dp108
I00
(dp109
g6
F0.0034
sg7
F0.0
sg8
F0.9966
ssI01
(dp110
g6
F0.0
sg7
F0.0
sg8
F1.0
sssI10
(dp111
I00
(dp112
g6
F0.0
sg7
F0.0
sg8
F1.0
ssI01
(dp113
g6
F0.0
sg7
F0.0
sg8
F1.0
sssI11
(dp114
I00
(dp115
g6
F0.0
sg7
F0.0
sg8
F1.0
ssI01
(dp116
g6
F0.0
sg7
F0.0
sg8
F1.0
sssI12
(dp117
I00
(dp118
g6
F0.0
sg7
F0.0
sg8
F1.0
ssI01
(dp119
g6
F0.0
sg7
F0.0
sg8
F1.0
sssI13
(dp120
I00
(dp121
g6
F0.0
sg7
F0.0
sg8
F1.0
ssI01
(dp122
g6
F0.0
sg7
F0.2009
sg8
F0.7991
sssI14
(dp123
I00
(dp124
g6
F0.0
sg7
F0.2301
sg8
F0.7699
ssI01
(dp125
g6
F0.0
sg7
F0.4079
sg8
F0.5921
ssssI5
(dp126
I2
(dp127
I00
(dp128
g6
F0.0059
sg7
F0.0
sg8
F0.9941
ssI01
(dp129
g6
F0.0
sg7
F0.0
sg8
F1.0
sssI3
(dp130
I00
(dp131
g6
F0.0
sg7
F0.0
sg8
F1.0
ssI01
(dp132
g6
F0.0
sg7
F0.1492
sg8
F0.8508
sssI4
(dp133
I00
(dp134
g6
F0.0
sg7
F0.0
sg8
F1.0
ssI01
(dp135
g6
F0.0
sg7
F0.344
sg8
F0.656
sssI5
(dp136
I00
(dp137
g6
F0.0
sg7
F0.5831
sg8
F0.4169
ssI01
(dp138
ssI6
(dp139
I00
(dp140
g6
F0.0
sg7
F0.0015
sg8
F0.9985
ssI01
(dp141
g6
F0.0
sg7
F0.3945
sg8
F0.6055
sssI7
(dp142
I00
(dp143
g6
F0.0
sg7
F0.0
sg8
F1.0
ssI01
(dp144
g6
F0.0
sg7
F0.3313
sg8
F0.6687
sssI8
(dp145
I00
(dp146
g6
F0.0
sg7
F0.0
sg8
F1.0
ssI01
(dp147
g6
F0.0
sg7
F0.246
sg8
F0.754
sssI9
(dp148
I00
(dp149
g6
F0.0
sg7
F0.0
sg8
F1.0
ssI01
(dp150
g6
F0.0
sg7
F0.1053
sg8
F0.8947
sssI10
(dp151
I00
(dp152
g6
F0.0
sg7
F0.0
sg8
F1.0
ssI01
(dp153
g6
F0.0
sg7
F0.0
sg8
F1.0
sssI11
(dp154
I00
(dp155
g6
F0.0
sg7
F0.0
sg8
F1.0
ssI01
(dp156
g6
F0.0
sg7
F0.0241
sg8
F0.9759
sssI12
(dp157
I00
(dp158
g6
F0.0
sg7
F0.0
sg8
F1.0
ssI01
(dp159
g6
F0.0
sg7
F0.1028
sg8
F0.8972
sssI13
(dp160
I00
(dp161
g6
F0.0
sg7
F0.0
sg8
F1.0
ssI01
(dp162
g6
F0.0
sg7
F0.2702
sg8
F0.7298
sssI14
(dp163
I00
(dp164
g6
F0.0
sg7
F0.2832
sg8
F0.7168
ssI01
(dp165
g6
F0.0
sg7
F0.4421
sg8
F0.5579
ssssI6
(dp166
I2
(dp167
I00
(dp168
g6
F0.0569
sg7
F0.0
sg8
F0.9431
ssI01
(dp169
g6
F0.0
sg7
F0.0
sg8
F1.0
sssI3
(dp170
I00
(dp171
g6
F0.0
sg7
F0.0
sg8
F1.0
ssI01
(dp172
g6
F0.0
sg7
F0.0
sg8
F1.0
sssI4
(dp173
I00
(dp174
g6
F0.0
sg7
F0.0
sg8
F1.0
ssI01
(dp175
g6
F0.0
sg7
F0.2695
sg8
F0.7305
sssI5
(dp176
I00
(dp177
g6
F0.0
sg7
F0.0015
sg8
F0.9985
ssI01
(dp178
g6
F0.0
sg7
F0.3945
sg8
F0.6055
sssI6
(dp179
I00
(dp180
g6
F0.0
sg7
F0.6342
sg8
F0.3658
ssI01
(dp181
ssI7
(dp182
I00
(dp183
g6
F0.0
sg7
F0.0667
sg8
F0.9333
ssI01
(dp184
g6
F0.0
sg7
F0.4083
sg8
F0.5917
sssI8
(dp185
I00
(dp186
g6
F0.0
sg7
F0.0
sg8
F1.0
ssI01
(dp187
g6
F0.0
sg7
F0.3602
sg8
F0.6398
sssI9
(dp188
I00
(dp189
g6
F0.0
sg7
F0.0
sg8
F1.0
ssI01
(dp190
g6
F0.0
sg7
F0.2825
sg8
F0.7175
sssI10
(dp191
I00
(dp192
g6
F0.0
sg7
F0.0
sg8
F1.0
ssI01
(dp193
g6
F0.0
sg7
F0.2297
sg8
F0.7703
sssI11
(dp194
I00
(dp195
g6
F0.0
sg7
F0.0
sg8
F1.0
ssI01
(dp196
g6
F0.0
sg7
F0.045
sg8
F0.955
sssI12
(dp197
I00
(dp198
g6
F0.0
sg7
F0.0
sg8
F1.0
ssI01
(dp199
g6
F0.0
sg7
F0.1627
sg8
F0.8373
sssI13
(dp200
I00
(dp201
g6
F0.0
sg7
F0.052
sg8
F0.948
ssI01
(dp202
g6
F0.0
sg7
F0.3254
sg8
F0.6746
sssI14
(dp203
I00
(dp204
g6
F0.0
sg7
F0.2772
sg8
F0.7228
ssI01
(dp205
g6
F0.0
sg7
F0.4351
sg8
F0.5649
ssssI7
(dp206
I2
(dp207
I00
(dp208
g6
F0.2697
sg7
F0.0
sg8
F0.7303
ssI01
(dp209
g6
F0.0
sg7
F0.0
sg8
F1.0
sssI3
(dp210
I00
(dp211
g6
F0.0
sg7
F0.0
sg8
F1.0
ssI01
(dp212
g6
F0.0
sg7
F0.0
sg8
F1.0
sssI4
(dp213
I00
(dp214
g6
F0.0
sg7
F0.0
sg8
F1.0
ssI01
(dp215
g6
F0.0
sg7
F0.1488
sg8
F0.8512
sssI5
(dp216
I00
(dp217
g6
F0.0
sg7
F0.0
sg8
F1.0
ssI01
(dp218
g6
F0.0
sg7
F0.3313
sg8
F0.6687
sssI6
(dp219
I00
(dp220
g6
F0.0
sg7
F0.0667
sg8
F0.9333
ssI01
(dp221
g6
F0.0
sg7
F0.4083
sg8
F0.5917
sssI7
(dp222
I00
(dp223
g6
F0.0
sg7
F0.7077
sg8
F0.2923
ssI01
(dp224
ssI8
(dp225
I00
(dp226
g6
F0.0
sg7
F0.1181
sg8
F0.8819
ssI01
(dp227
g6
F0.0
sg7
F0.42
sg8
F0.58
sssI9
(dp228
I00
(dp229
g6
F0.0
sg7
F0.0
sg8
F1.0
ssI01
(dp230
g6
F0.0
sg7
F0.3633
sg8
F0.6367
sssI10
(dp231
I00
(dp232
g6
F0.0
sg7
F0.0
sg8
F1.0
ssI01
(dp233
g6
F0.0
sg7
F0.3342
sg8
F0.6658
sssI11
(dp234
I00
(dp235
g6
F0.0
sg7
F0.0285
sg8
F0.9715
ssI01
(dp236
g6
F0.0
sg7
F0.1494
sg8
F0.8506
sssI12
(dp237
I00
(dp238
g6
F0.0
sg7
F0.0
sg8
F1.0
ssI01
(dp239
g6
F0.0
sg7
F0.1868
sg8
F0.8132
sssI13
(dp240
I00
(dp241
g6
F0.0
sg7
F0.1517
sg8
F0.8483
ssI01
(dp242
g6
F0.0
sg7
F0.3593
sg8
F0.6407
sssI14
(dp243
I00
(dp244
g6
F0.0
sg7
F0.3311
sg8
F0.6689
ssI01
(dp245
g6
F0.0
sg7
F0.4704
sg8
F0.5296
ssssI8
(dp246
I2
(dp247
I00
(dp248
g6
F0.1692
sg7
F0.0
sg8
F0.8308
ssI01
(dp249
g6
F0.0
sg7
F0.0
sg8
F1.0
sssI3
(dp250
I00
(dp251
g6
F0.0435
sg7
F0.0
sg8
F0.9565
ssI01
(dp252
g6
F0.0
sg7
F0.0
sg8
F1.0
sssI4
(dp253
I00
(dp254
g6
F0.0
sg7
F0.0
sg8
F1.0
ssI01
(dp255
g6
F0.0
sg7
F0.0
sg8
F1.0
sssI5
(dp256
I00
(dp257
g6
F0.0
sg7
F0.0
sg8
F1.0
ssI01
(dp258
g6
F0.0
sg7
F0.246
sg8
F0.754
sssI6
(dp259
I00
(dp260
g6
F0.0
sg7
F0.0
sg8
F1.0
ssI01
(dp261
g6
F0.0
sg7
F0.3602
sg8
F0.6398
sssI7
(dp262
I00
(dp263
g6
F0.0
sg7
F0.1181
sg8
F0.8819
ssI01
(dp264
g6
F0.0
sg7
F0.42
sg8
F0.58
sssI8
(dp265
I00
(dp266
g6
F0.0
sg7
F0.7845
sg8
F0.2155
ssI01
(dp267
ssI9
(dp268
I00
(dp269
g6
F0.0
sg7
F0.1569
sg8
F0.8431
ssI01
(dp270
g6
F0.0
sg7
F0.3881
sg8
F0.6119
sssI10
(dp271
I00
(dp272
g6
F0.0
sg7
F0.1075
sg8
F0.8925
ssI01
(dp273
g6
F0.0
sg7
F0.2937
sg8
F0.7063
sssI11
(dp274
I00
(dp275
g6
F0.0
sg7
F0.0502
sg8
F0.9498
ssI01
(dp276
g6
F0.0
sg7
F0.2174
sg8
F0.7826
sssI12
(dp277
I00
(dp278
g6
F0.0
sg7
F0.0099
sg8
F0.9901
ssI01
(dp279
g6
F0.0
sg7
F0.3465
sg8
F0.6535
sssI13
(dp280
I00
(dp281
g6
F0.0
sg7
F0.2139
sg8
F0.7861
ssI01
(dp282
g6
F0.0
sg7
F0.383
sg8
F0.617
sssI14
(dp283
I00
(dp284
g6
F0.0
sg7
F0.3788
sg8
F0.6212
ssI01
(dp285
g6
F0.0
sg7
F0.5005
sg8
F0.4995
ssssI9
(dp286
I2
(dp287
I00
(dp288
g6
F0.0728
sg7
F0.0
sg8
F0.9272
ssI01
(dp289
g6
F0.0
sg7
F0.0
sg8
F1.0
sssI3
(dp290
I00
(dp291
g6
F0.0033
sg7
F0.0
sg8
F0.9967
ssI01
(dp292
g6
F0.0
sg7
F0.0
sg8
F1.0
sssI4
(dp293
I00
(dp294
g6
F0.0034
sg7
F0.0
sg8
F0.9966
ssI01
(dp295
g6
F0.0
sg7
F0.0
sg8
F1.0
sssI5
(dp296
I00
(dp297
g6
F0.0
sg7
F0.0
sg8
F1.0
ssI01
(dp298
g6
F0.0
sg7
F0.1053
sg8
F0.8947
sssI6
(dp299
I00
(dp300
g6
F0.0
sg7
F0.0
sg8
F1.0
ssI01
(dp301
g6
F0.0
sg7
F0.2825
sg8
F0.7175
sssI7
(dp302
I00
(dp303
g6
F0.0
sg7
F0.0
sg8
F1.0
ssI01
(dp304
g6
F0.0
sg7
F0.3633
sg8
F0.6367
sssI8
(dp305
I00
(dp306
g6
F0.0
sg7
F0.1569
sg8
F0.8431
ssI01
(dp307
g6
F0.0
sg7
F0.3881
sg8
F0.6119
sssI9
(dp308
I00
(dp309
g6
F0.0
sg7
F0.8266
sg8
F0.1734
ssI01
(dp310
ssI10
(dp311
I00
(dp312
g6
F0.0
sg7
F0.2688
sg8
F0.7312
ssI01
(dp313
g6
F0.0
sg7
F0.244
sg8
F0.756
sssI11
(dp314
I00
(dp315
g6
F0.0
sg7
F0.0384
sg8
F0.9616
ssI01
(dp316
g6
F0.0
sg7
F0.3943
sg8
F0.6057
sssI12
(dp317
I00
(dp318
g6
F0.0
sg7
F0.2415
sg8
F0.7585
ssI01
(dp319
g6
F0.0
sg7
F0.4229
sg8
F0.5771
sssI13
(dp320
I00
(dp321
g6
F0.0
sg7
F0.3317
sg8
F0.6683
ssI01
(dp322
g6
F0.0
sg7
F0.4396
sg8
F0.5604
sssI14
(dp323
I00
(dp324
g6
F0.0
sg7
F0.4278
sg8
F0.5722
ssI01
(dp325
g6
F0.0
sg7
F0.5277
sg8
F0.4723
ssssI10
(dp326
I2
(dp327
I00
(dp328
g6
F0.0541
sg7
F0.0
sg8
F0.9459
ssI01
(dp329
g6
F0.0
sg7
F0.0
sg8
F1.0
sssI3
(dp330
I00
(dp331
g6
F0.0
sg7
F0.0
sg8
F1.0
ssI01
(dp332
g6
F0.0
sg7
F0.0
sg8
F1.0
sssI4
(dp333
I00
(dp334
g6
F0.0
sg7
F0.0
sg8
F1.0
ssI01
(dp335
g6
F0.0
sg7
F0.0
sg8
F1.0
sssI5
(dp336
I00
(dp337
g6
F0.0
sg7
F0.0
sg8
F1.0
ssI01
(dp338
g6
F0.0
sg7
F0.0
sg8
F1.0
sssI6
(dp339
I00
(dp340
g6
F0.0
sg7
F0.0
sg8
F1.0
ssI01
(dp341
g6
F0.0
sg7
F0.2297
sg8
F0.7703
sssI7
(dp342
I00
(dp343
g6
F0.0
sg7
F0.0
sg8
F1.0
ssI01
(dp344
g6
F0.0
sg7
F0.3342
sg8
F0.6658
sssI8
(dp345
I00
(dp346
g6
F0.0
sg7
F0.1075
sg8
F0.8925
ssI01
(dp347
g6
F0.0
sg7
F0.2937
sg8
F0.7063
sssI9
(dp348
I00
(dp349
g6
F0.0
sg7
F0.2688
sg8
F0.7312
ssI01
(dp350
g6
F0.0
sg7
F0.244
sg8
F0.756
sssI10
(dp351
I00
(dp352
g6
F0.0
sg7
F0.7111
sg8
F0.2889
ssI01
(dp353
ssI11
(dp354
I00
(dp355
g6
F0.0
sg7
F0.2797
sg8
F0.7203
ssI01
(dp356
g6
F0.0
sg7
F0.4763
sg8
F0.5237
sssI12
(dp357
I00
(dp358
g6
F0.0
sg7
F0.3661
sg8
F0.6339
ssI01
(dp359
g6
F0.0
sg7
F0.4711
sg8
F0.5289
sssI13
(dp360
I00
(dp361
g6
F0.0
sg7
F0.4094
sg8
F0.5906
ssI01
(dp362
g6
F0.0
sg7
F0.4831
sg8
F0.5169
sssI14
(dp363
I00
(dp364
g6
F0.0
sg7
F0.4801
sg8
F0.5199
ssI01
(dp365
g6
F0.0
sg7
F0.5578
sg8
F0.4422
ssssI11
(dp366
I2
(dp367
I00
(dp368
g6
F0.0298
sg7
F0.0
sg8
F0.9702
ssI01
(dp369
g6
F0.0
sg7
F0.0
sg8
F1.0
sssI3
(dp370
I00
(dp371
g6
F0.0
sg7
F0.0
sg8
F1.0
ssI01
(dp372
g6
F0.0
sg7
F0.0
sg8
F1.0
sssI4
(dp373
I00
(dp374
g6
F0.0
sg7
F0.0
sg8
F1.0
ssI01
(dp375
g6
F0.0
sg7
F0.0
sg8
F1.0
sssI5
(dp376
I00
(dp377
g6
F0.0
sg7
F0.0
sg8
F1.0
ssI01
(dp378
g6
F0.0
sg7
F0.0241
sg8
F0.9759
sssI6
(dp379
I00
(dp380
g6
F0.0
sg7
F0.0
sg8
F1.0
ssI01
(dp381
g6
F0.0
sg7
F0.045
sg8
F0.955
sssI7
(dp382
I00
(dp383
g6
F0.0
sg7
F0.0285
sg8
F0.9715
ssI01
(dp384
g6
F0.0
sg7
F0.1494
sg8
F0.8506
sssI8
(dp385
I00
(dp386
g6
F0.0
sg7
F0.0502
sg8
F0.9498
ssI01
(dp387
g6
F0.0
sg7
F0.2174
sg8
F0.7826
sssI9
(dp388
I00
(dp389
g6
F0.0
sg7
F0.0384
sg8
F0.9616
ssI01
(dp390
g6
F0.0
sg7
F0.3943
sg8
F0.6057
sssI10
(dp391
I00
(dp392
g6
F0.0
sg7
F0.2797
sg8
F0.7203
ssI01
(dp393
g6
F0.0
sg7
F0.4763
sg8
F0.5237
sssI11
(dp394
I00
(dp395
g6
F0.0
sg7
F0.6379
sg8
F0.3621
ssI01
(dp396
ssI12
(dp397
I00
(dp398
g6
F0.0
sg7
F0.4322
sg8
F0.5678
ssI01
(dp399
g6
F0.0
sg7
F0.4924
sg8
F0.5076
sssI13
(dp400
I00
(dp401
g6
F0.0
sg7
F0.4442
sg8
F0.5558
ssI01
(dp402
g6
F0.0
sg7
F0.5018
sg8
F0.4982
sssI14
(dp403
I00
(dp404
g6
F0.0
sg7
F0.5021
sg8
F0.4979
ssI01
(dp405
g6
F0.0
sg7
F0.5612
sg8
F0.4388
ssssI12
(dp406
I2
(dp407
I00
(dp408
g6
F0.0
sg7
F0.0
sg8
F1.0
ssI01
(dp409
g6
F0.0
sg7
F0.0
sg8
F1.0
sssI3
(dp410
I00
(dp411
g6
F0.0
sg7
F0.0
sg8
F1.0
ssI01
(dp412
g6
F0.0
sg7
F0.0
sg8
F1.0
sssI4
(dp413
I00
(dp414
g6
F0.0
sg7
F0.0
sg8
F1.0
ssI01
(dp415
g6
F0.0
sg7
F0.0
sg8
F1.0
sssI5
(dp416
I00
(dp417
g6
F0.0
sg7
F0.0
sg8
F1.0
ssI01
(dp418
g6
F0.0
sg7
F0.1028
sg8
F0.8972
sssI6
(dp419
I00
(dp420
g6
F0.0
sg7
F0.0
sg8
F1.0
ssI01
(dp421
g6
F0.0
sg7
F0.1627
sg8
F0.8373
sssI7
(dp422
I00
(dp423
g6
F0.0
sg7
F0.0
sg8
F1.0
ssI01
(dp424
g6
F0.0
sg7
F0.1868
sg8
F0.8132
sssI8
(dp425
I00
(dp426
g6
F0.0
sg7
F0.0099
sg8
F0.9901
ssI01
(dp427
g6
F0.0
sg7
F0.3465
sg8
F0.6535
sssI9
(dp428
I00
(dp429
g6
F0.0
sg7
F0.2415
sg8
F0.7585
ssI01
(dp430
g6
F0.0
sg7
F0.4229
sg8
F0.5771
sssI10
(dp431
I00
(dp432
g6
F0.0
sg7
F0.3661
sg8
F0.6339
ssI01
(dp433
g6
F0.0
sg7
F0.4711
sg8
F0.5289
sssI11
(dp434
I00
(dp435
g6
F0.0
sg7
F0.4322
sg8
F0.5678
ssI01
(dp436
g6
F0.0
sg7
F0.4924
sg8
F0.5076
sssI12
(dp437
I00
(dp438
g6
F0.0
sg7
F0.5826
sg8
F0.4174
ssI01
(dp439
ssI13
(dp440
I00
(dp441
g6
F0.0
sg7
F0.4636
sg8
F0.5364
ssI01
(dp442
g6
F0.0
sg7
F0.5147
sg8
F0.4853
sssI14
(dp443
I00
(dp444
g6
F0.0
sg7
F0.5216
sg8
F0.4784
ssI01
(dp445
g6
F0.0
sg7
F0.5646
sg8
F0.4354
ssssI13
(dp446
I2
(dp447
I00
(dp448
g6
F0.0
sg7
F0.0
sg8
F1.0
ssI01
(dp449
g6
F0.0
sg7
F0.0
sg8
F1.0
sssI3
(dp450
I00
(dp451
g6
F0.0
sg7
F0.0
sg8
F1.0
ssI01
(dp452
g6
F0.0
sg7
F0.1057
sg8
F0.8943
sssI4
(dp453
I00
(dp454
g6
F0.0
sg7
F0.0
sg8
F1.0
ssI01
(dp455
g6
F0.0
sg7
F0.2009
sg8
F0.7991
sssI5
(dp456
I00
(dp457
g6
F0.0
sg7
F0.0
sg8
F1.0
ssI01
(dp458
g6
F0.0
sg7
F0.2702
sg8
F0.7298
sssI6
(dp459
I00
(dp460
g6
F0.0
sg7
F0.052
sg8
F0.948
ssI01
(dp461
g6
F0.0
sg7
F0.3254
sg8
F0.6746
sssI7
(dp462
I00
(dp463
g6
F0.0
sg7
F0.1517
sg8
F0.8483
ssI01
(dp464
g6
F0.0
sg7
F0.3593
sg8
F0.6407
sssI8
(dp465
I00
(dp466
g6
F0.0
sg7
F0.2139
sg8
F0.7861
ssI01
(dp467
g6
F0.0
sg7
F0.383
sg8
F0.617
sssI9
(dp468
I00
(dp469
g6
F0.0
sg7
F0.3317
sg8
F0.6683
ssI01
(dp470
g6
F0.0
sg7
F0.4396
sg8
F0.5604
sssI10
(dp471
I00
(dp472
g6
F0.0
sg7
F0.4094
sg8
F0.5906
ssI01
(dp473
g6
F0.0
sg7
F0.4831
sg8
F0.5169
sssI11
(dp474
I00
(dp475
g6
F0.0
sg7
F0.4442
sg8
F0.5558
ssI01
(dp476
g6
F0.0
sg7
F0.5018
sg8
F0.4982
sssI12
(dp477
I00
(dp478
g6
F0.0
sg7
F0.4636
sg8
F0.5364
ssI01
(dp479
g6
F0.0
sg7
F0.5147
sg8
F0.4853
sssI13
(dp480
I00
(dp481
g6
F0.0
sg7
F0.5838
sg8
F0.4162
ssI01
(dp482
ssI14
(dp483
I00
(dp484
g6
F0.0
sg7
F0.5422
sg8
F0.4578
ssI01
(dp485
g6
F0.0
sg7
F0.5658
sg8
F0.4342
ssssI14
(dp486
I2
(dp487
I00
(dp488
g6
F0.0
sg7
F0.0847
sg8
F0.9153
ssI01
(dp489
g6
F0.0
sg7
F0.3328
sg8
F0.6672
sssI3
(dp490
I00
(dp491
g6
F0.0
sg7
F0.1721
sg8
F0.8279
ssI01
(dp492
g6
F0.0
sg7
F0.3742
sg8
F0.6258
sssI4
(dp493
I00
(dp494
g6
F0.0
sg7
F0.2301
sg8
F0.7699
ssI01
(dp495
g6
F0.0
sg7
F0.4079
sg8
F0.5921
sssI5
(dp496
I00
(dp497
g6
F0.0
sg7
F0.2832
sg8
F0.7168
ssI01
(dp498
g6
F0.0
sg7
F0.4421
sg8
F0.5579
sssI6
(dp499
I00
(dp500
g6
F0.0
sg7
F0.2772
sg8
F0.7228
ssI01
(dp501
g6
F0.0
sg7
F0.4351
sg8
F0.5649
sssI7
(dp502
I00
(dp503
g6
F0.0
sg7
F0.3311
sg8
F0.6689
ssI01
(dp504
g6
F0.0
sg7
F0.4704
sg8
F0.5296
sssI8
(dp505
I00
(dp506
g6
F0.0
sg7
F0.3788
sg8
F0.6212
ssI01
(dp507
g6
F0.0
sg7
F0.5005
sg8
F0.4995
sssI9
(dp508
I00
(dp509
g6
F0.0
sg7
F0.4278
sg8
F0.5722
ssI01
(dp510
g6
F0.0
sg7
F0.5277
sg8
F0.4723
sssI10
(dp511
I00
(dp512
g6
F0.0
sg7
F0.4801
sg8
F0.5199
ssI01
(dp513
g6
F0.0
sg7
F0.5578
sg8
F0.4422
sssI11
(dp514
I00
(dp515
g6
F0.0
sg7
F0.5021
sg8
F0.4979
ssI01
(dp516
g6
F0.0
sg7
F0.5612
sg8
F0.4388
sssI12
(dp517
I00
(dp518
g6
F0.0
sg7
F0.5216
sg8
F0.4784
ssI01
(dp519
g6
F0.0
sg7
F0.5646
sg8
F0.4354
sssI13
(dp520
I00
(dp521
g6
F0.0
sg7
F0.5422
sg8
F0.4578
ssI01
(dp522
g6
F0.0
sg7
F0.5658
sg8
F0.4342
sssI14
(dp523
I00
(dp524
g6
F0.0
sg7
F0.8194
sg8
F0.1806
ssI01
(dp525
ssssS'c'
p526
(dp527
I2
(dp528
I2
(dp529
I00
(dp530
g6
F0.0
sg7
F0.1579
sg8
F0.8421
ssI01
(dp531
ssI3
(dp532
I00
(dp533
g6
F0.0
sg7
F0.0
sg8
F1.0
ssI01
(dp534
g6
F0.0
sg7
F0.2793
sg8
F0.7207
sssI4
(dp535
I00
(dp536
g6
F0.0
sg7
F0.0
sg8
F1.0
ssI01
(dp537
g6
F0.0
sg7
F0.4217
sg8
F0.5783
sssI5
(dp538
I00
(dp539
g6
F0.0
sg7
F0.0
sg8
F1.0
ssI01
(dp540
g6
F0.0
sg7
F0.4895
sg8
F0.5105
sssI6
(dp541
I00
(dp542
g6
F0.0
sg7
F0.0
sg8
F1.0
ssI01
(dp543
g6
F0.0
sg7
F0.2608
sg8
F0.7392
sssI7
(dp544
I00
(dp545
g6
F0.0
sg7
F0.0
sg8
F1.0
ssI01
(dp546
g6
F0.0
sg7
F0.0
sg8
F1.0
sssI8
(dp547
I00
(dp548
g6
F0.0
sg7
F0.0
sg8
F1.0
ssI01
(dp549
g6
F0.0
sg7
F0.0391
sg8
F0.9609
sssI9
(dp550
I00
(dp551
g6
F0.0
sg7
F0.0
sg8
F1.0
ssI01
(dp552
g6
F0.0
sg7
F0.2028
sg8
F0.7972
sssI10
(dp553
I00
(dp554
g6
F0.0
sg7
F0.0
sg8
F1.0
ssI01
(dp555
g6
F0.0
sg7
F0.3808
sg8
F0.6192
sssI11
(dp556
I00
(dp557
g6
F0.0
sg7
F0.0
sg8
F1.0
ssI01
(dp558
g6
F0.0
sg7
F0.5167
sg8
F0.4833
sssI12
(dp559
I00
(dp560
g6
F0.0
sg7
F0.0217
sg8
F0.9783
ssI01
(dp561
g6
F0.0
sg7
F0.5753
sg8
F0.4247
sssI13
(dp562
I00
(dp563
g6
F0.0
sg7
F0.043
sg8
F0.957
ssI01
(dp564
g6
F0.0
sg7
F0.6048
sg8
F0.3952
sssI14
(dp565
I00
(dp566
g6
F0.0
sg7
F0.3425
sg8
F0.6575
ssI01
(dp567
g6
F0.0
sg7
F1.0
sg8
F0.0
ssssI3
(dp568
I2
(dp569
I00
(dp570
g6
F0.0
sg7
F0.0
sg8
F1.0
ssI01
(dp571
g6
F0.0
sg7
F0.2793
sg8
F0.7207
sssI3
(dp572
I00
(dp573
g6
F0.0
sg7
F1.0
sg8
F0.0
ssI01
(dp574
ssI4
(dp575
I00
(dp576
g6
F0.0
sg7
F0.2024
sg8
F0.7976
ssI01
(dp577
g6
F0.0
sg7
F0.9563
sg8
F0.0437
sssI5
(dp578
I00
(dp579
g6
F0.0
sg7
F0.2863
sg8
F0.7137
ssI01
(dp580
g6
F0.0
sg7
F1.0
sg8
F0.0
sssI6
(dp581
I00
(dp582
g6
F0.0
sg7
F0.0194
sg8
F0.9806
ssI01
(dp583
g6
F0.0
sg7
F0.7735
sg8
F0.2265
sssI7
(dp584
I00
(dp585
g6
F0.0
sg7
F0.0
sg8
F1.0
ssI01
(dp586
g6
F0.0
sg7
F0.4937
sg8
F0.5063
sssI8
(dp587
I00
(dp588
g6
F0.0
sg7
F0.0
sg8
F1.0
ssI01
(dp589
g6
F0.0
sg7
F0.2071
sg8
F0.7929
sssI9
(dp590
I00
(dp591
g6
F0.0
sg7
F0.0
sg8
F1.0
ssI01
(dp592
g6
F0.0
sg7
F0.4021
sg8
F0.5979
sssI10
(dp593
I00
(dp594
g6
F0.0
sg7
F0.0
sg8
F1.0
ssI01
(dp595
g6
F0.0
sg7
F0.55
sg8
F0.45
sssI11
(dp596
I00
(dp597
g6
F0.0
sg7
F0.0975
sg8
F0.9025
ssI01
(dp598
g6
F0.0
sg7
F0.6947
sg8
F0.3053
sssI12
(dp599
I00
(dp600
g6
F0.0
sg7
F0.2254
sg8
F0.7746
ssI01
(dp601
g6
F0.0
sg7
F0.8328
sg8
F0.1672
sssI13
(dp602
I00
(dp603
g6
F0.0
sg7
F0.2484
sg8
F0.7516
ssI01
(dp604
g6
F0.0
sg7
F0.8772
sg8
F0.1228
sssI14
(dp605
I00
(dp606
g6
F0.0
sg7
F0.5613
sg8
F0.4387
ssI01
(dp607
g6
F0.0
sg7
F1.0
sg8
F0.0
ssssI4
(dp608
I2
(dp609
I00
(dp610
g6
F0.0
sg7
F0.0
sg8
F1.0
ssI01
(dp611
g6
F0.0
sg7
F0.4217
sg8
F0.5783
sssI3
(dp612
I00
(dp613
g6
F0.0
sg7
F0.2024
sg8
F0.7976
ssI01
(dp614
g6
F0.0
sg7
F0.9563
sg8
F0.0437
sssI4
(dp615
I00
(dp616
g6
F0.0
sg7
F1.0
sg8
F0.0
ssI01
(dp617
ssI5
(dp618
I00
(dp619
g6
F0.0
sg7
F0.5617
sg8
F0.4383
ssI01
(dp620
g6
F0.0
sg7
F1.0
sg8
F0.0
sssI6
(dp621
I00
(dp622
g6
F0.0
sg7
F0.4046
sg8
F0.5954
ssI01
(dp623
g6
F0.0
sg7
F1.0
sg8
F0.0
sssI7
(dp624
I00
(dp625
g6
F0.0
sg7
F0.2112
sg8
F0.7888
ssI01
(dp626
g6
F0.0
sg7
F1.0
sg8
F0.0
sssI8
(dp627
I00
(dp628
g6
F0.0
sg7
F0.0
sg8
F1.0
ssI01
(dp629
g6
F0.0
sg7
F0.6933
sg8
F0.3067
sssI9
(dp630
I00
(dp631
g6
F0.0
sg7
F0.0
sg8
F1.0
ssI01
(dp632
g6
F0.0
sg7
F0.4807
sg8
F0.5193
sssI10
(dp633
I00
(dp634
g6
F0.0
sg7
F0.0991
sg8
F0.9009
ssI01
(dp635
g6
F0.0
sg7
F0.7099
sg8
F0.2901
sssI11
(dp636
I00
(dp637
g6
F0.0
sg7
F0.2748
sg8
F0.7252
ssI01
(dp638
g6
F0.0
sg7
F0.9235
sg8
F0.0765
sssI12
(dp639
I00
(dp640
g6
F0.0
sg7
F0.376
sg8
F0.624
ssI01
(dp641
g6
F0.0
sg7
F1.0
sg8
F0.0
sssI13
(dp642
I00
(dp643
g6
F0.0
sg7
F0.4164
sg8
F0.5836
ssI01
(dp644
g6
F0.0
sg7
F1.0
sg8
F0.0
sssI14
(dp645
I00
(dp646
g6
F0.0
sg7
F0.7683
sg8
F0.2317
ssI01
(dp647
g6
F0.0
sg7
F1.0
sg8
F0.0
ssssI5
(dp648
I2
(dp649
I00
(dp650
g6
F0.0
sg7
F0.0
sg8
F1.0
ssI01
(dp651
g6
F0.0
sg7
F0.4895
sg8
F0.5105
sssI3
(dp652
I00
(dp653
g6
F0.0
sg7
F0.2863
sg8
F0.7137
ssI01
(dp654
g6
F0.0
sg7
F1.0
sg8
F0.0
sssI4
(dp655
I00
(dp656
g6
F0.0
sg7
F0.5617
sg8
F0.4383
ssI01
(dp657
g6
F0.0
sg7
F1.0
sg8
F0.0
sssI5
(dp658
I00
(dp659
g6
F0.0
sg7
F1.0
sg8
F0.0
ssI01
(dp660
ssI6
(dp661
I00
(dp662
g6
F0.0
sg7
F0.6113
sg8
F0.3887
ssI01
(dp663
g6
F0.0
sg7
F1.0
sg8
F0.0
sssI7
(dp664
I00
(dp665
g6
F0.0
sg7
F0.4721
sg8
F0.5279
ssI01
(dp666
g6
F0.0
sg7
F1.0
sg8
F0.0
sssI8
(dp667
I00
(dp668
g6
F0.0
sg7
F0.2978
sg8
F0.7022
ssI01
(dp669
g6
F0.0
sg7
F1.0
sg8
F0.0
sssI9
(dp670
I00
(dp671
g6
F0.0
sg7
F0.1663
sg8
F0.8337
ssI01
(dp672
g6
F0.0
sg7
F0.8626
sg8
F0.1374
sssI10
(dp673
I00
(dp674
g6
F0.0
sg7
F0.1543
sg8
F0.8457
ssI01
(dp675
g6
F0.0
sg7
F0.7528
sg8
F0.2472
sssI11
(dp676
I00
(dp677
g6
F0.0
sg7
F0.3662
sg8
F0.6338
ssI01
(dp678
g6
F0.0
sg7
F1.0
sg8
F0.0
sssI12
(dp679
I00
(dp680
g6
F0.0
sg7
F0.4731
sg8
F0.5269
ssI01
(dp681
g6
F0.0
sg7
F1.0
sg8
F0.0
sssI13
(dp682
I00
(dp683
g6
F0.0
sg7
F0.6066
sg8
F0.3934
ssI01
(dp684
g6
F0.0
sg7
F1.0
sg8
F0.0
sssI14
(dp685
I00
(dp686
g6
F0.0
sg7
F1.0
sg8
F0.0
ssI01
(dp687
g6
F0.0
sg7
F1.0
sg8
F0.0
ssssI6
(dp688
I2
(dp689
I00
(dp690
g6
F0.0
sg7
F0.0
sg8
F1.0
ssI01
(dp691
g6
F0.0
sg7
F0.2608
sg8
F0.7392
sssI3
(dp692
I00
(dp693
g6
F0.0
sg7
F0.0194
sg8
F0.9806
ssI01
(dp694
g6
F0.0
sg7
F0.7735
sg8
F0.2265
sssI4
(dp695
I00
(dp696
g6
F0.0
sg7
F0.4046
sg8
F0.5954
ssI01
(dp697
g6
F0.0
sg7
F1.0
sg8
F0.0
sssI5
(dp698
I00
(dp699
g6
F0.0
sg7
F0.6113
sg8
F0.3887
ssI01
(dp700
g6
F0.0
sg7
F1.0
sg8
F0.0
sssI6
(dp701
I00
(dp702
g6
F0.0
sg7
F1.0
sg8
F0.0
ssI01
(dp703
ssI7
(dp704
I00
(dp705
g6
F0.0
sg7
F0.7116
sg8
F0.2884
ssI01
(dp706
g6
F0.0
sg7
F1.0
sg8
F0.0
sssI8
(dp707
I00
(dp708
g6
F0.0
sg7
F0.51
sg8
F0.49
ssI01
(dp709
g6
F0.0
sg7
F1.0
sg8
F0.0
sssI9
(dp710
I00
(dp711
g6
F0.0
sg7
F0.3836
sg8
F0.6164
ssI01
(dp712
g6
F0.0
sg7
F1.0
sg8
F0.0
sssI10
(dp713
I00
(dp714
g6
F0.0
sg7
F0.3184
sg8
F0.6816
ssI01
(dp715
g6
F0.0
sg7
F1.0
sg8
F0.0
sssI11
(dp716
I00
(dp717
g6
F0.0
sg7
F0.2837
sg8
F0.7163
ssI01
(dp718
g6
F0.0
sg7
F1.0
sg8
F0.0
sssI12
(dp719
I00
(dp720
g6
F0.0
sg7
F0.5057
sg8
F0.4943
ssI01
(dp721
g6
F0.0
sg7
F1.0
sg8
F0.0
sssI13
(dp722
I00
(dp723
g6
F0.0
sg7
F0.7124
sg8
F0.2876
ssI01
(dp724
g6
F0.0
sg7
F1.0
sg8
F0.0
sssI14
(dp725
I00
(dp726
g6
F0.0
sg7
F0.7815
sg8
F0.2185
ssI01
(dp727
g6
F0.0
sg7
F1.0
sg8
F0.0
ssssI7
(dp728
I2
(dp729
I00
(dp730
g6
F0.0
sg7
F0.0
sg8
F1.0
ssI01
(dp731
g6
F0.0
sg7
F0.0
sg8
F1.0
sssI3
(dp732
I00
(dp733
g6
F0.0
sg7
F0.0
sg8
F1.0
ssI01
(dp734
g6
F0.0
sg7
F0.4937
sg8
F0.5063
sssI4
(dp735
I00
(dp736
g6
F0.0
sg7
F0.2112
sg8
F0.7888
ssI01
(dp737
g6
F0.0
sg7
F1.0
sg8
F0.0
sssI5
(dp738
I00
(dp739
g6
F0.0
sg7
F0.4721
sg8
F0.5279
ssI01
(dp740
g6
F0.0
sg7
F1.0
sg8
F0.0
sssI6
(dp741
I00
(dp742
g6
F0.0
sg7
F0.7116
sg8
F0.2884
ssI01
(dp743
g6
F0.0
sg7
F1.0
sg8
F0.0
sssI7
(dp744
I00
(dp745
g6
F0.0
sg7
F1.0
sg8
F0.0
ssI01
(dp746
ssI8
(dp747
I00
(dp748
g6
F0.0
sg7
F0.7605
sg8
F0.2395
ssI01
(dp749
g6
F0.0
sg7
F1.0
sg8
F0.0
sssI9
(dp750
I00
(dp751
g6
F0.0
sg7
F0.5897
sg8
F0.4103
ssI01
(dp752
g6
F0.0
sg7
F1.0
sg8
F0.0
sssI10
(dp753
I00
(dp754
g6
F0.0
sg7
F0.5185
sg8
F0.4815
ssI01
(dp755
g6
F0.0
sg7
F1.0
sg8
F0.0
sssI11
(dp756
I00
(dp757
g6
F0.0
sg7
F0.4214
sg8
F0.5786
ssI01
(dp758
g6
F0.0
sg7
F1.0
sg8
F0.0
sssI12
(dp759
I00
(dp760
g6
F0.0
sg7
F0.4445
sg8
F0.5555
ssI01
(dp761
g6
F0.0
sg7
F1.0
sg8
F0.0
sssI13
(dp762
I00
(dp763
g6
F0.0
sg7
F0.7727
sg8
F0.2273
ssI01
(dp764
g6
F0.0
sg7
F1.0
sg8
F0.0
sssI14
(dp765
I00
(dp766
g6
F0.0
sg7
F0.9999
sg8
F0.0001
ssI01
(dp767
g6
F0.0
sg7
F1.0
sg8
F0.0
ssssI8
(dp768
I2
(dp769
I00
(dp770
g6
F0.0
sg7
F0.0
sg8
F1.0
ssI01
(dp771
g6
F0.0
sg7
F0.0391
sg8
F0.9609
sssI3
(dp772
I00
(dp773
g6
F0.0
sg7
F0.0
sg8
F1.0
ssI01
(dp774
g6
F0.0
sg7
F0.2071
sg8
F0.7929
sssI4
(dp775
I00
(dp776
g6
F0.0
sg7
F0.0
sg8
F1.0
ssI01
(dp777
g6
F0.0
sg7
F0.6933
sg8
F0.3067
sssI5
(dp778
I00
(dp779
g6
F0.0
sg7
F0.2978
sg8
F0.7022
ssI01
(dp780
g6
F0.0
sg7
F1.0
sg8
F0.0
sssI6
(dp781
I00
(dp782
g6
F0.0
sg7
F0.51
sg8
F0.49
ssI01
(dp783
g6
F0.0
sg7
F1.0
sg8
F0.0
sssI7
(dp784
I00
(dp785
g6
F0.0
sg7
F0.7605
sg8
F0.2395
ssI01
(dp786
g6
F0.0
sg7
F1.0
sg8
F0.0
sssI8
(dp787
I00
(dp788
g6
F0.0
sg7
F1.0
sg8
F0.0
ssI01
(dp789
ssI9
(dp790
I00
(dp791
g6
F0.0
sg7
F0.8242
sg8
F0.1758
ssI01
(dp792
g6
F0.0
sg7
F1.0
sg8
F0.0
sssI10
(dp793
I00
(dp794
g6
F0.0
sg7
F0.7209
sg8
F0.2791
ssI01
(dp795
g6
F0.0
sg7
F1.0
sg8
F0.0
sssI11
(dp796
I00
(dp797
g6
F0.0
sg7
F0.6327
sg8
F0.3673
ssI01
(dp798
g6
F0.0
sg7
F1.0
sg8
F0.0
sssI12
(dp799
I00
(dp800
g6
F0.0
sg7
F0.645
sg8
F0.355
ssI01
(dp801
g6
F0.0
sg7
F1.0
sg8
F0.0
sssI13
(dp802
I00
(dp803
g6
F0.0
sg7
F0.7759
sg8
F0.2241
ssI01
(dp804
g6
F0.0
sg7
F1.0
sg8
F0.0
sssI14
(dp805
I00
(dp806
g6
F0.0
sg7
F1.0
sg8
F0.0
ssI01
(dp807
g6
F0.0
sg7
F1.0
sg8
F0.0
ssssI9
(dp808
I2
(dp809
I00
(dp810
g6
F0.0
sg7
F0.0
sg8
F1.0
ssI01
(dp811
g6
F0.0
sg7
F0.2028
sg8
F0.7972
sssI3
(dp812
I00
(dp813
g6
F0.0
sg7
F0.0
sg8
F1.0
ssI01
(dp814
g6
F0.0
sg7
F0.4021
sg8
F0.5979
sssI4
(dp815
I00
(dp816
g6
F0.0
sg7
F0.0
sg8
F1.0
ssI01
(dp817
g6
F0.0
sg7
F0.4807
sg8
F0.5193
sssI5
(dp818
I00
(dp819
g6
F0.0
sg7
F0.1663
sg8
F0.8337
ssI01
(dp820
g6
F0.0
sg7
F0.8626
sg8
F0.1374
sssI6
(dp821
I00
(dp822
g6
F0.0
sg7
F0.3836
sg8
F0.6164
ssI01
(dp823
g6
F0.0
sg7
F1.0
sg8
F0.0
sssI7
(dp824
I00
(dp825
g6
F0.0
sg7
F0.5897
sg8
F0.4103
ssI01
(dp826
g6
F0.0
sg7
F1.0
sg8
F0.0
sssI8
(dp827
I00
(dp828
g6
F0.0
sg7
F0.8242
sg8
F0.1758
ssI01
(dp829
g6
F0.0
sg7
F1.0
sg8
F0.0
sssI9
(dp830
I00
(dp831
g6
F0.0
sg7
F1.0
sg8
F0.0
ssI01
(dp832
ssI10
(dp833
I00
(dp834
g6
F0.0
sg7
F0.9773
sg8
F0.0227
ssI01
(dp835
g6
F0.0
sg7
F1.0
sg8
F0.0
sssI11
(dp836
I00
(dp837
g6
F0.0
sg7
F0.8554
sg8
F0.1446
ssI01
(dp838
g6
F0.0
sg7
F1.0
sg8
F0.0
sssI12
(dp839
I00
(dp840
g6
F0.0
sg7
F0.8491
sg8
F0.1509
ssI01
(dp841
g6
F0.0
sg7
F1.0
sg8
F0.0
sssI13
(dp842
I00
(dp843
g6
F0.0
sg7
F0.9859
sg8
F0.0141
ssI01
(dp844
g6
F0.0
sg7
F1.0
sg8
F0.0
sssI14
(dp845
I00
(dp846
g6
F0.0
sg7
F1.0
sg8
F0.0
ssI01
(dp847
g6
F0.0
sg7
F1.0
sg8
F0.0
ssssI10
(dp848
I2
(dp849
I00
(dp850
g6
F0.0
sg7
F0.0
sg8
F1.0
ssI01
(dp851
g6
F0.0
sg7
F0.3808
sg8
F0.6192
sssI3
(dp852
I00
(dp853
g6
F0.0
sg7
F0.0
sg8
F1.0
ssI01
(dp854
g6
F0.0
sg7
F0.55
sg8
F0.45
sssI4
(dp855
I00
(dp856
g6
F0.0
sg7
F0.0991
sg8
F0.9009
ssI01
(dp857
g6
F0.0
sg7
F0.7099
sg8
F0.2901
sssI5
(dp858
I00
(dp859
g6
F0.0
sg7
F0.1543
sg8
F0.8457
ssI01
(dp860
g6
F0.0
sg7
F0.7528
sg8
F0.2472
sssI6
(dp861
I00
(dp862
g6
F0.0
sg7
F0.3184
sg8
F0.6816
ssI01
(dp863
g6
F0.0
sg7
F1.0
sg8
F0.0
sssI7
(dp864
I00
(dp865
g6
F0.0
sg7
F0.5185
sg8
F0.4815
ssI01
(dp866
g6
F0.0
sg7
F1.0
sg8
F0.0
sssI8
(dp867
I00
(dp868
g6
F0.0
sg7
F0.7209
sg8
F0.2791
ssI01
(dp869
g6
F0.0
sg7
F1.0
sg8
F0.0
sssI9
(dp870
I00
(dp871
g6
F0.0
sg7
F0.9773
sg8
F0.0227
ssI01
(dp872
g6
F0.0
sg7
F1.0
sg8
F0.0
sssI10
(dp873
I00
(dp874
g6
F0.0
sg7
F1.0
sg8
F0.0
ssI01
(dp875
ssI11
(dp876
I00
(dp877
g6
F0.0
sg7
F0.9948
sg8
F0.0052
ssI01
(dp878
g6
F0.0
sg7
F1.0
sg8
F0.0
sssI12
(dp879
I00
(dp880
g6
F0.0
sg7
F0.9972
sg8
F0.0028
ssI01
(dp881
g6
F0.0
sg7
F1.0
sg8
F0.0
sssI13
(dp882
I00
(dp883
g6
F0.0
sg7
F1.0
sg8
F0.0
ssI01
(dp884
g6
F0.0
sg7
F1.0
sg8
F0.0
sssI14
(dp885
I00
(dp886
g6
F0.0
sg7
F1.0
sg8
F0.0
ssI01
(dp887
g6
F0.0
sg7
F1.0
sg8
F0.0
ssssI11
(dp888
I2
(dp889
I00
(dp890
g6
F0.0
sg7
F0.0
sg8
F1.0
ssI01
(dp891
g6
F0.0
sg7
F0.5167
sg8
F0.4833
sssI3
(dp892
I00
(dp893
g6
F0.0
sg7
F0.0975
sg8
F0.9025
ssI01
(dp894
g6
F0.0
sg7
F0.6947
sg8
F0.3053
sssI4
(dp895
I00
(dp896
g6
F0.0
sg7
F0.2748
sg8
F0.7252
ssI01
(dp897
g6
F0.0
sg7
F0.9235
sg8
F0.0765
sssI5
(dp898
I00
(dp899
g6
F0.0
sg7
F0.3662
sg8
F0.6338
ssI01
(dp900
g6
F0.0
sg7
F1.0
sg8
F0.0
sssI6
(dp901
I00
(dp902
g6
F0.0
sg7
F0.2837
sg8
F0.7163
ssI01
(dp903
g6
F0.0
sg7
F1.0
sg8
F0.0
sssI7
(dp904
I00
(dp905
g6
F0.0
sg7
F0.4214
sg8
F0.5786
ssI01
(dp906
g6
F0.0
sg7
F1.0
sg8
F0.0
sssI8
(dp907
I00
(dp908
g6
F0.0
sg7
F0.6327
sg8
F0.3673
ssI01
(dp909
g6
F0.0
sg7
F1.0
sg8
F0.0
sssI9
(dp910
I00
(dp911
g6
F0.0
sg7
F0.8554
sg8
F0.1446
ssI01
(dp912
g6
F0.0
sg7
F1.0
sg8
F0.0
sssI10
(dp913
I00
(dp914
g6
F0.0
sg7
F0.9948
sg8
F0.0052
ssI01
(dp915
g6
F0.0
sg7
F1.0
sg8
F0.0
sssI11
(dp916
I00
(dp917
g6
F0.0
sg7
F1.0
sg8
F0.0
ssI01
(dp918
ssI12
(dp919
I00
(dp920
g6
F0.0
sg7
F1.0
sg8
F0.0
ssI01
(dp921
g6
F0.0
sg7
F1.0
sg8
F0.0
sssI13
(dp922
I00
(dp923
g6
F0.0
sg7
F1.0
sg8
F0.0
ssI01
(dp924
g6
F0.0
sg7
F1.0
sg8
F0.0
sssI14
(dp925
I00
(dp926
g6
F0.0
sg7
F1.0
sg8
F0.0
ssI01
(dp927
g6
F0.0
sg7
F1.0
sg8
F0.0
ssssI12
(dp928
I2
(dp929
I00
(dp930
g6
F0.0
sg7
F0.0217
sg8
F0.9783
ssI01
(dp931
g6
F0.0
sg7
F0.5753
sg8
F0.4247
sssI3
(dp932
I00
(dp933
g6
F0.0
sg7
F0.2254
sg8
F0.7746
ssI01
(dp934
g6
F0.0
sg7
F0.8328
sg8
F0.1672
sssI4
(dp935
I00
(dp936
g6
F0.0
sg7
F0.376
sg8
F0.624
ssI01
(dp937
g6
F0.0
sg7
F1.0
sg8
F0.0
sssI5
(dp938
I00
(dp939
g6
F0.0
sg7
F0.4731
sg8
F0.5269
ssI01
(dp940
g6
F0.0
sg7
F1.0
sg8
F0.0
sssI6
(dp941
I00
(dp942
g6
F0.0
sg7
F0.5057
sg8
F0.4943
ssI01
(dp943
g6
F0.0
sg7
F1.0
sg8
F0.0
sssI7
(dp944
I00
(dp945
g6
F0.0
sg7
F0.4445
sg8
F0.5555
ssI01
(dp946
g6
F0.0
sg7
F1.0
sg8
F0.0
sssI8
(dp947
I00
(dp948
g6
F0.0
sg7
F0.645
sg8
F0.355
ssI01
(dp949
g6
F0.0
sg7
F1.0
sg8
F0.0
sssI9
(dp950
I00
(dp951
g6
F0.0
sg7
F0.8491
sg8
F0.1509
ssI01
(dp952
g6
F0.0
sg7
F1.0
sg8
F0.0
sssI10
(dp953
I00
(dp954
g6
F0.0
sg7
F0.9972
sg8
F0.0028
ssI01
(dp955
g6
F0.0
sg7
F1.0
sg8
F0.0
sssI11
(dp956
I00
(dp957
g6
F0.0
sg7
F1.0
sg8
F0.0
ssI01
(dp958
g6
F0.0
sg7
F1.0
sg8
F0.0
sssI12
(dp959
I00
(dp960
g6
F0.0
sg7
F1.0
sg8
F0.0
ssI01
(dp961
ssI13
(dp962
I00
(dp963
g6
F0.0
sg7
F1.0
sg8
F0.0
ssI01
(dp964
g6
F0.0
sg7
F1.0
sg8
F0.0
sssI14
(dp965
I00
(dp966
g6
F0.0
sg7
F1.0
sg8
F0.0
ssI01
(dp967
g6
F0.0
sg7
F1.0
sg8
F0.0
ssssI13
(dp968
I2
(dp969
I00
(dp970
g6
F0.0
sg7
F0.043
sg8
F0.957
ssI01
(dp971
g6
F0.0
sg7
F0.6048
sg8
F0.3952
sssI3
(dp972
I00
(dp973
g6
F0.0
sg7
F0.2484
sg8
F0.7516
ssI01
(dp974
g6
F0.0
sg7
F0.8772
sg8
F0.1228
sssI4
(dp975
I00
(dp976
g6
F0.0
sg7
F0.4164
sg8
F0.5836
ssI01
(dp977
g6
F0.0
sg7
F1.0
sg8
F0.0
sssI5
(dp978
I00
(dp979
g6
F0.0
sg7
F0.6066
sg8
F0.3934
ssI01
(dp980
g6
F0.0
sg7
F1.0
sg8
F0.0
sssI6
(dp981
I00
(dp982
g6
F0.0
sg7
F0.7124
sg8
F0.2876
ssI01
(dp983
g6
F0.0
sg7
F1.0
sg8
F0.0
sssI7
(dp984
I00
(dp985
g6
F0.0
sg7
F0.7727
sg8
F0.2273
ssI01
(dp986
g6
F0.0
sg7
F1.0
sg8
F0.0
sssI8
(dp987
I00
(dp988
g6
F0.0
sg7
F0.7759
sg8
F0.2241
ssI01
(dp989
g6
F0.0
sg7
F1.0
sg8
F0.0
sssI9
(dp990
I00
(dp991
g6
F0.0
sg7
F0.9859
sg8
F0.0141
ssI01
(dp992
g6
F0.0
sg7
F1.0
sg8
F0.0
sssI10
(dp993
I00
(dp994
g6
F0.0
sg7
F1.0
sg8
F0.0
ssI01
(dp995
g6
F0.0
sg7
F1.0
sg8
F0.0
sssI11
(dp996
I00
(dp997
g6
F0.0
sg7
F1.0
sg8
F0.0
ssI01
(dp998
g6
F0.0
sg7
F1.0
sg8
F0.0
sssI12
(dp999
I00
(dp1000
g6
F0.0
sg7
F1.0
sg8
F0.0
ssI01
(dp1001
g6
F0.0
sg7
F1.0
sg8
F0.0
sssI13
(dp1002
I00
(dp1003
g6
F0.0
sg7
F1.0
sg8
F0.0
ssI01
(dp1004
ssI14
(dp1005
I00
(dp1006
g6
F0.0
sg7
F1.0
sg8
F0.0
ssI01
(dp1007
g6
F0.0
sg7
F1.0
sg8
F0.0
ssssI14
(dp1008
I2
(dp1009
I00
(dp1010
g6
F0.0
sg7
F0.3425
sg8
F0.6575
ssI01
(dp1011
g6
F0.0
sg7
F1.0
sg8
F0.0
sssI3
(dp1012
I00
(dp1013
g6
F0.0
sg7
F0.5613
sg8
F0.4387
ssI01
(dp1014
g6
F0.0
sg7
F1.0
sg8
F0.0
sssI4
(dp1015
I00
(dp1016
g6
F0.0
sg7
F0.7683
sg8
F0.2317
ssI01
(dp1017
g6
F0.0
sg7
F1.0
sg8
F0.0
sssI5
(dp1018
I00
(dp1019
g6
F0.0
sg7
F1.0
sg8
F0.0
ssI01
(dp1020
g6
F0.0
sg7
F1.0
sg8
F0.0
sssI6
(dp1021
I00
(dp1022
g6
F0.0
sg7
F0.7815
sg8
F0.2185
ssI01
(dp1023
g6
F0.0
sg7
F1.0
sg8
F0.0
sssI7
(dp1024
I00
(dp1025
g6
F0.0
sg7
F0.9999
sg8
F0.0001
ssI01
(dp1026
g6
F0.0
sg7
F1.0
sg8
F0.0
sssI8
(dp1027
I00
(dp1028
g6
F0.0
sg7
F1.0
sg8
F0.0
ssI01
(dp1029
g6
F0.0
sg7
F1.0
sg8
F0.0
sssI9
(dp1030
I00
(dp1031
g6
F0.0
sg7
F1.0
sg8
F0.0
ssI01
(dp1032
g6
F0.0
sg7
F1.0
sg8
F0.0
sssI10
(dp1033
I00
(dp1034
g6
F0.0
sg7
F1.0
sg8
F0.0
ssI01
(dp1035
g6
F0.0
sg7
F1.0
sg8
F0.0
sssI11
(dp1036
I00
(dp1037
g6
F0.0
sg7
F1.0
sg8
F0.0
ssI01
(dp1038
g6
F0.0
sg7
F1.0
sg8
F0.0
sssI12
(dp1039
I00
(dp1040
g6
F0.0
sg7
F1.0
sg8
F0.0
ssI01
(dp1041
g6
F0.0
sg7
F1.0
sg8
F0.0
sssI13
(dp1042
I00
(dp1043
g6
F0.0
sg7
F1.0
sg8
F0.0
ssI01
(dp1044
g6
F0.0
sg7
F1.0
sg8
F0.0
sssI14
(dp1045
I00
(dp1046
g6
F0.0
sg7
F1.0
sg8
F0.0
ssI01
(dp1047
ssssS'rr'
p1048
(dp1049
I2
(dp1050
I2
(dp1051
I00
(dp1052
g6
F0.0
sg7
F0.0006
sg8
F0.9994
ssI01
(dp1053
ssI3
(dp1054
I00
(dp1055
g6
F0.0
sg7
F0.0
sg8
F1.0
ssI01
(dp1056
g6
F0.0
sg7
F0.0
sg8
F1.0
sssI4
(dp1057
I00
(dp1058
g6
F0.0
sg7
F0.0
sg8
F1.0
ssI01
(dp1059
g6
F0.0
sg7
F0.0
sg8
F1.0
sssI5
(dp1060
I00
(dp1061
g6
F0.0
sg7
F0.0
sg8
F1.0
ssI01
(dp1062
g6
F0.0
sg7
F0.0
sg8
F1.0
sssI6
(dp1063
I00
(dp1064
g6
F0.0
sg7
F0.0
sg8
F1.0
ssI01
(dp1065
g6
F0.0
sg7
F0.0
sg8
F1.0
sssI7
(dp1066
I00
(dp1067
g6
F0.0
sg7
F0.0
sg8
F1.0
ssI01
(dp1068
g6
F0.0
sg7
F0.0
sg8
F1.0
sssI8
(dp1069
I00
(dp1070
g6
F0.0
sg7
F0.0
sg8
F1.0
ssI01
(dp1071
g6
F0.0
sg7
F0.0
sg8
F1.0
sssI9
(dp1072
I00
(dp1073
g6
F0.0
sg7
F0.0
sg8
F1.0
ssI01
(dp1074
g6
F0.0
sg7
F0.0
sg8
F1.0
sssI10
(dp1075
I00
(dp1076
g6
F0.0
sg7
F0.0
sg8
F1.0
ssI01
(dp1077
g6
F0.0
sg7
F0.0
sg8
F1.0
sssI11
(dp1078
I00
(dp1079
g6
F0.0
sg7
F0.0
sg8
F1.0
ssI01
(dp1080
g6
F0.0
sg7
F0.0
sg8
F1.0
sssI12
(dp1081
I00
(dp1082
g6
F0.0
sg7
F0.0
sg8
F1.0
ssI01
(dp1083
g6
F0.0
sg7
F0.0
sg8
F1.0
sssI13
(dp1084
I00
(dp1085
g6
F0.0
sg7
F0.0
sg8
F1.0
ssI01
(dp1086
g6
F0.0
sg7
F0.0
sg8
F1.0
sssI14
(dp1087
I00
(dp1088
g6
F0.0
sg7
F0.0
sg8
F1.0
ssI01
(dp1089
g6
F0.0
sg7
F0.0
sg8
F1.0
ssssI3
(dp1090
I2
(dp1091
I00
(dp1092
g6
F0.0
sg7
F0.0
sg8
F1.0
ssI01
(dp1093
g6
F0.0
sg7
F0.0
sg8
F1.0
sssI3
(dp1094
I00
(dp1095
g6
F0.0
sg7
F0.0003
sg8
F0.9997
ssI01
(dp1096
ssI4
(dp1097
I00
(dp1098
g6
F0.0
sg7
F0.0
sg8
F1.0
ssI01
(dp1099
g6
F0.0
sg7
F0.0
sg8
F1.0
sssI5
(dp1100
I00
(dp1101
g6
F0.0
sg7
F0.0
sg8
F1.0
ssI01
(dp1102
g6
F0.0
sg7
F0.0
sg8
F1.0
sssI6
(dp1103
I00
(dp1104
g6
F0.0
sg7
F0.0
sg8
F1.0
ssI01
(dp1105
g6
F0.0
sg7
F0.0
sg8
F1.0
sssI7
(dp1106
I00
(dp1107
g6
F0.0
sg7
F0.0
sg8
F1.0
ssI01
(dp1108
g6
F0.0
sg7
F0.0
sg8
F1.0
sssI8
(dp1109
I00
(dp1110
g6
F0.0
sg7
F0.0
sg8
F1.0
ssI01
(dp1111
g6
F0.0
sg7
F0.0
sg8
F1.0
sssI9
(dp1112
I00
(dp1113
g6
F0.0
sg7
F0.0
sg8
F1.0
ssI01
(dp1114
g6
F0.0
sg7
F0.0
sg8
F1.0
sssI10
(dp1115
I00
(dp1116
g6
F0.0
sg7
F0.0
sg8
F1.0
ssI01
(dp1117
g6
F0.0
sg7
F0.0
sg8
F1.0
sssI11
(dp1118
I00
(dp1119
g6
F0.0
sg7
F0.0
sg8
F1.0
ssI01
(dp1120
g6
F0.0
sg7
F0.0
sg8
F1.0
sssI12
(dp1121
I00
(dp1122
g6
F0.0
sg7
F0.0
sg8
F1.0
ssI01
(dp1123
g6
F0.0
sg7
F0.0002
sg8
F0.9998
sssI13
(dp1124
I00
(dp1125
g6
F0.0
sg7
F0.0
sg8
F1.0
ssI01
(dp1126
g6
F0.0
sg7
F0.0
sg8
F1.0
sssI14
(dp1127
I00
(dp1128
g6
F0.0
sg7
F0.0
sg8
F1.0
ssI01
(dp1129
g6
F0.0
sg7
F0.0002
sg8
F0.9998
ssssI4
(dp1130
I2
(dp1131
I00
(dp1132
g6
F0.0
sg7
F0.0
sg8
F1.0
ssI01
(dp1133
g6
F0.0
sg7
F0.0
sg8
F1.0
sssI3
(dp1134
I00
(dp1135
g6
F0.0
sg7
F0.0
sg8
F1.0
ssI01
(dp1136
g6
F0.0
sg7
F0.0
sg8
F1.0
sssI4
(dp1137
I00
(dp1138
g6
F0.0
sg7
F0.0
sg8
F1.0
ssI01
(dp1139
ssI5
(dp1140
I00
(dp1141
g6
F0.0
sg7
F0.0
sg8
F1.0
ssI01
(dp1142
g6
F0.0
sg7
F0.0
sg8
F1.0
sssI6
(dp1143
I00
(dp1144
g6
F0.0
sg7
F0.0
sg8
F1.0
ssI01
(dp1145
g6
F0.0
sg7
F0.0
sg8
F1.0
sssI7
(dp1146
I00
(dp1147
g6
F0.0
sg7
F0.0
sg8
F1.0
ssI01
(dp1148
g6
F0.0
sg7
F0.0
sg8
F1.0
sssI8
(dp1149
I00
(dp1150
g6
F0.0
sg7
F0.0
sg8
F1.0
ssI01
(dp1151
g6
F0.0
sg7
F0.0
sg8
F1.0
sssI9
(dp1152
I00
(dp1153
g6
F0.0
sg7
F0.0
sg8
F1.0
ssI01
(dp1154
g6
F0.0
sg7
F0.0
sg8
F1.0
sssI10
(dp1155
I00
(dp1156
g6
F0.0
sg7
F0.0
sg8
F1.0
ssI01
(dp1157
g6
F0.0
sg7
F0.0003
sg8
F0.9997
sssI11
(dp1158
I00
(dp1159
g6
F0.0
sg7
F0.0
sg8
F1.0
ssI01
(dp1160
g6
F0.0
sg7
F0.0002
sg8
F0.9998
sssI12
(dp1161
I00
(dp1162
g6
F0.0
sg7
F0.0
sg8
F1.0
ssI01
(dp1163
g6
F0.0
sg7
F0.0001
sg8
F0.9999
sssI13
(dp1164
I00
(dp1165
g6
F0.0
sg7
F0.0001
sg8
F0.9999
ssI01
(dp1166
g6
F0.0
sg7
F0.0
sg8
F1.0
sssI14
(dp1167
I00
(dp1168
g6
F0.0
sg7
F0.0001
sg8
F0.9999
ssI01
(dp1169
g6
F0.0
sg7
F0.0001
sg8
F0.9999
ssssI5
(dp1170
I2
(dp1171
I00
(dp1172
g6
F0.0
sg7
F0.0
sg8
F1.0
ssI01
(dp1173
g6
F0.0
sg7
F0.0
sg8
F1.0
sssI3
(dp1174
I00
(dp1175
g6
F0.0
sg7
F0.0
sg8
F1.0
ssI01
(dp1176
g6
F0.0
sg7
F0.0
sg8
F1.0
sssI4
(dp1177
I00
(dp1178
g6
F0.0
sg7
F0.0
sg8
F1.0
ssI01
(dp1179
g6
F0.0
sg7
F0.0
sg8
F1.0
sssI5
(dp1180
I00
(dp1181
g6
F0.0
sg7
F0.0
sg8
F1.0
ssI01
(dp1182
ssI6
(dp1183
I00
(dp1184
g6
F0.0
sg7
F0.0
sg8
F1.0
ssI01
(dp1185
g6
F0.0
sg7
F0.0
sg8
F1.0
sssI7
(dp1186
I00
(dp1187
g6
F0.0
sg7
F0.0
sg8
F1.0
ssI01
(dp1188
g6
F0.0
sg7
F0.0
sg8
F1.0
sssI8
(dp1189
I00
(dp1190
g6
F0.0
sg7
F0.0
sg8
F1.0
ssI01
(dp1191
g6
F0.0
sg7
F0.0
sg8
F1.0
sssI9
(dp1192
I00
(dp1193
g6
F0.0
sg7
F0.0
sg8
F1.0
ssI01
(dp1194
g6
F0.0
sg7
F0.0
sg8
F1.0
sssI10
(dp1195
I00
(dp1196
g6
F0.0
sg7
F0.0
sg8
F1.0
ssI01
(dp1197
g6
F0.0
sg7
F0.0
sg8
F1.0
sssI11
(dp1198
I00
(dp1199
g6
F0.0
sg7
F0.0
sg8
F1.0
ssI01
(dp1200
g6
F0.0
sg7
F0.0
sg8
F1.0
sssI12
(dp1201
I00
(dp1202
g6
F0.0
sg7
F0.0001
sg8
F0.9999
ssI01
(dp1203
g6
F0.0
sg7
F0.0
sg8
F1.0
sssI13
(dp1204
I00
(dp1205
g6
F0.0
sg7
F0.0002
sg8
F0.9998
ssI01
(dp1206
g6
F0.0
sg7
F0.0
sg8
F1.0
sssI14
(dp1207
I00
(dp1208
g6
F0.0
sg7
F0.0002
sg8
F0.9998
ssI01
(dp1209
g6
F0.0
sg7
F0.0
sg8
F1.0
ssssI6
(dp1210
I2
(dp1211
I00
(dp1212
g6
F0.0
sg7
F0.0
sg8
F1.0
ssI01
(dp1213
g6
F0.0
sg7
F0.0
sg8
F1.0
sssI3
(dp1214
I00
(dp1215
g6
F0.0
sg7
F0.0
sg8
F1.0
ssI01
(dp1216
g6
F0.0
sg7
F0.0
sg8
F1.0
sssI4
(dp1217
I00
(dp1218
g6
F0.0
sg7
F0.0
sg8
F1.0
ssI01
(dp1219
g6
F0.0
sg7
F0.0
sg8
F1.0
sssI5
(dp1220
I00
(dp1221
g6
F0.0
sg7
F0.0
sg8
F1.0
ssI01
(dp1222
g6
F0.0
sg7
F0.0
sg8
F1.0
sssI6
(dp1223
I00
(dp1224
g6
F0.0
sg7
F0.0
sg8
F1.0
ssI01
(dp1225
ssI7
(dp1226
I00
(dp1227
g6
F0.0
sg7
F0.0
sg8
F1.0
ssI01
(dp1228
g6
F0.0
sg7
F0.0
sg8
F1.0
sssI8
(dp1229
I00
(dp1230
g6
F0.0
sg7
F0.0
sg8
F1.0
ssI01
(dp1231
g6
F0.0
sg7
F0.0
sg8
F1.0
sssI9
(dp1232
I00
(dp1233
g6
F0.0
sg7
F0.0
sg8
F1.0
ssI01
(dp1234
g6
F0.0
sg7
F0.0002
sg8
F0.9998
sssI10
(dp1235
I00
(dp1236
g6
F0.0
sg7
F0.0
sg8
F1.0
ssI01
(dp1237
g6
F0.0
sg7
F0.0
sg8
F1.0
sssI11
(dp1238
I00
(dp1239
g6
F0.0
sg7
F0.0
sg8
F1.0
ssI01
(dp1240
g6
F0.0
sg7
F0.0
sg8
F1.0
sssI12
(dp1241
I00
(dp1242
g6
F0.0
sg7
F0.0002
sg8
F0.9998
ssI01
(dp1243
g6
F0.0
sg7
F0.0
sg8
F1.0
sssI13
(dp1244
I00
(dp1245
g6
F0.0
sg7
F0.0
sg8
F1.0
ssI01
(dp1246
g6
F0.0
sg7
F0.0
sg8
F1.0
sssI14
(dp1247
I00
(dp1248
g6
F0.0
sg7
F0.0001
sg8
F0.9999
ssI01
(dp1249
g6
F0.0
sg7
F0.0
sg8
F1.0
ssssI7
(dp1250
I2
(dp1251
I00
(dp1252
g6
F0.0
sg7
F0.0
sg8
F1.0
ssI01
(dp1253
g6
F0.0
sg7
F0.0
sg8
F1.0
sssI3
(dp1254
I00
(dp1255
g6
F0.0
sg7
F0.0
sg8
F1.0
ssI01
(dp1256
g6
F0.0
sg7
F0.0
sg8
F1.0
sssI4
(dp1257
I00
(dp1258
g6
F0.0
sg7
F0.0
sg8
F1.0
ssI01
(dp1259
g6
F0.0
sg7
F0.0
sg8
F1.0
sssI5
(dp1260
I00
(dp1261
g6
F0.0
sg7
F0.0
sg8
F1.0
ssI01
(dp1262
g6
F0.0
sg7
F0.0
sg8
F1.0
sssI6
(dp1263
I00
(dp1264
g6
F0.0
sg7
F0.0
sg8
F1.0
ssI01
(dp1265
g6
F0.0
sg7
F0.0
sg8
F1.0
sssI7
(dp1266
I00
(dp1267
g6
F0.0
sg7
F0.0001
sg8
F0.9999
ssI01
(dp1268
ssI8
(dp1269
I00
(dp1270
g6
F0.0
sg7
F0.0
sg8
F1.0
ssI01
(dp1271
g6
F0.0
sg7
F0.0004
sg8
F0.9996
sssI9
(dp1272
I00
(dp1273
g6
F0.0
sg7
F0.0
sg8
F1.0
ssI01
(dp1274
g6
F0.0
sg7
F0.0003
sg8
F0.9997
sssI10
(dp1275
I00
(dp1276
g6
F0.0
sg7
F0.0
sg8
F1.0
ssI01
(dp1277
g6
F0.0
sg7
F0.0001
sg8
F0.9999
sssI11
(dp1278
I00
(dp1279
g6
F0.0
sg7
F0.0001
sg8
F0.9999
ssI01
(dp1280
g6
F0.0
sg7
F0.0
sg8
F1.0
sssI12
(dp1281
I00
(dp1282
g6
F0.0
sg7
F0.0
sg8
F1.0
ssI01
(dp1283
g6
F0.0
sg7
F0.0
sg8
F1.0
sssI13
(dp1284
I00
(dp1285
g6
F0.0
sg7
F0.0002
sg8
F0.9998
ssI01
(dp1286
g6
F0.0
sg7
F0.0001
sg8
F0.9999
sssI14
(dp1287
I00
(dp1288
g6
F0.0
sg7
F0.0
sg8
F1.0
ssI01
(dp1289
g6
F0.0
sg7
F0.0005
sg8
F0.9995
ssssI8
(dp1290
I2
(dp1291
I00
(dp1292
g6
F0.0
sg7
F0.0
sg8
F1.0
ssI01
(dp1293
g6
F0.0
sg7
F0.0
sg8
F1.0
sssI3
(dp1294
I00
(dp1295
g6
F0.0
sg7
F0.0
sg8
F1.0
ssI01
(dp1296
g6
F0.0
sg7
F0.0
sg8
F1.0
sssI4
(dp1297
I00
(dp1298
g6
F0.0
sg7
F0.0
sg8
F1.0
ssI01
(dp1299
g6
F0.0
sg7
F0.0
sg8
F1.0
sssI5
(dp1300
I00
(dp1301
g6
F0.0
sg7
F0.0
sg8
F1.0
ssI01
(dp1302
g6
F0.0
sg7
F0.0
sg8
F1.0
sssI6
(dp1303
I00
(dp1304
g6
F0.0
sg7
F0.0
sg8
F1.0
ssI01
(dp1305
g6
F0.0
sg7
F0.0
sg8
F1.0
sssI7
(dp1306
I00
(dp1307
g6
F0.0
sg7
F0.0
sg8
F1.0
ssI01
(dp1308
g6
F0.0
sg7
F0.0004
sg8
F0.9996
sssI8
(dp1309
I00
(dp1310
g6
F0.0
sg7
F0.0
sg8
F1.0
ssI01
(dp1311
ssI9
(dp1312
I00
(dp1313
g6
F0.0
sg7
F0.0
sg8
F1.0
ssI01
(dp1314
g6
F0.0
sg7
F0.0001
sg8
F0.9999
sssI10
(dp1315
I00
(dp1316
g6
F0.0
sg7
F0.0
sg8
F1.0
ssI01
(dp1317
g6
F0.0
sg7
F0.0005
sg8
F0.9995
sssI11
(dp1318
I00
(dp1319
g6
F0.0
sg7
F0.0
sg8
F1.0
ssI01
(dp1320
g6
F0.0
sg7
F0.0
sg8
F1.0
sssI12
(dp1321
I00
(dp1322
g6
F0.0
sg7
F0.0003
sg8
F0.9997
ssI01
(dp1323
g6
F0.0
sg7
F0.0
sg8
F1.0
sssI13
(dp1324
I00
(dp1325
g6
F0.0
sg7
F0.0
sg8
F1.0
ssI01
(dp1326
g6
F0.0
sg7
F0.0
sg8
F1.0
sssI14
(dp1327
I00
(dp1328
g6
F0.0
sg7
F0.0
sg8
F1.0
ssI01
(dp1329
g6
F0.0
sg7
F0.0003
sg8
F0.9997
ssssI9
(dp1330
I2
(dp1331
I00
(dp1332
g6
F0.0
sg7
F0.0
sg8
F1.0
ssI01
(dp1333
g6
F0.0
sg7
F0.0
sg8
F1.0
sssI3
(dp1334
I00
(dp1335
g6
F0.0
sg7
F0.0
sg8
F1.0
ssI01
(dp1336
g6
F0.0
sg7
F0.0
sg8
F1.0
sssI4
(dp1337
I00
(dp1338
g6
F0.0
sg7
F0.0
sg8
F1.0
ssI01
(dp1339
g6
F0.0
sg7
F0.0
sg8
F1.0
sssI5
(dp1340
I00
(dp1341
g6
F0.0
sg7
F0.0
sg8
F1.0
ssI01
(dp1342
g6
F0.0
sg7
F0.0
sg8
F1.0
sssI6
(dp1343
I00
(dp1344
g6
F0.0
sg7
F0.0
sg8
F1.0
ssI01
(dp1345
g6
F0.0
sg7
F0.0002
sg8
F0.9998
sssI7
(dp1346
I00
(dp1347
g6
F0.0
sg7
F0.0
sg8
F1.0
ssI01
(dp1348
g6
F0.0
sg7
F0.0003
sg8
F0.9997
sssI8
(dp1349
I00
(dp1350
g6
F0.0
sg7
F0.0
sg8
F1.0
ssI01
(dp1351
g6
F0.0
sg7
F0.0001
sg8
F0.9999
sssI9
(dp1352
I00
(dp1353
g6
F0.0
sg7
F0.0
sg8
F1.0
ssI01
(dp1354
ssI10
(dp1355
I00
(dp1356
g6
F0.0
sg7
F0.0002
sg8
F0.9998
ssI01
(dp1357
g6
F0.0
sg7
F0.0006
sg8
F0.9994
sssI11
(dp1358
I00
(dp1359
g6
F0.0
sg7
F0.0
sg8
F1.0
ssI01
(dp1360
g6
F0.0
sg7
F0.0
sg8
F1.0
sssI12
(dp1361
I00
(dp1362
g6
F0.0
sg7
F0.0002
sg8
F0.9998
ssI01
(dp1363
g6
F0.0
sg7
F0.0
sg8
F1.0
sssI13
(dp1364
I00
(dp1365
g6
F0.0
sg7
F0.0
sg8
F1.0
ssI01
(dp1366
g6
F0.0
sg7
F0.0
sg8
F1.0
sssI14
(dp1367
I00
(dp1368
g6
F0.0
sg7
F0.0
sg8
F1.0
ssI01
(dp1369
g6
F0.0
sg7
F0.0
sg8
F1.0
ssssI10
(dp1370
I2
(dp1371
I00
(dp1372
g6
F0.0
sg7
F0.0
sg8
F1.0
ssI01
(dp1373
g6
F0.0
sg7
F0.0
sg8
F1.0
sssI3
(dp1374
I00
(dp1375
g6
F0.0
sg7
F0.0
sg8
F1.0
ssI01
(dp1376
g6
F0.0
sg7
F0.0
sg8
F1.0
sssI4
(dp1377
I00
(dp1378
g6
F0.0
sg7
F0.0
sg8
F1.0
ssI01
(dp1379
g6
F0.0
sg7
F0.0003
sg8
F0.9997
sssI5
(dp1380
I00
(dp1381
g6
F0.0
sg7
F0.0
sg8
F1.0
ssI01
(dp1382
g6
F0.0
sg7
F0.0
sg8
F1.0
sssI6
(dp1383
I00
(dp1384
g6
F0.0
sg7
F0.0
sg8
F1.0
ssI01
(dp1385
g6
F0.0
sg7
F0.0
sg8
F1.0
sssI7
(dp1386
I00
(dp1387
g6
F0.0
sg7
F0.0
sg8
F1.0
ssI01
(dp1388
g6
F0.0
sg7
F0.0001
sg8
F0.9999
sssI8
(dp1389
I00
(dp1390
g6
F0.0
sg7
F0.0
sg8
F1.0
ssI01
(dp1391
g6
F0.0
sg7
F0.0005
sg8
F0.9995
sssI9
(dp1392
I00
(dp1393
g6
F0.0
sg7
F0.0002
sg8
F0.9998
ssI01
(dp1394
g6
F0.0
sg7
F0.0006
sg8
F0.9994
sssI10
(dp1395
I00
(dp1396
g6
F0.0
sg7
F0.0005
sg8
F0.9995
ssI01
(dp1397
ssI11
(dp1398
I00
(dp1399
g6
F0.0
sg7
F0.0
sg8
F1.0
ssI01
(dp1400
g6
F0.0
sg7
F0.0002
sg8
F0.9998
sssI12
(dp1401
I00
(dp1402
g6
F0.0
sg7
F0.0002
sg8
F0.9998
ssI01
(dp1403
g6
F0.0
sg7
F0.0
sg8
F1.0
sssI13
(dp1404
I00
(dp1405
g6
F0.0
sg7
F0.0
sg8
F1.0
ssI01
(dp1406
g6
F0.0
sg7
F0.0001
sg8
F0.9999
sssI14
(dp1407
I00
(dp1408
g6
F0.0
sg7
F0.0
sg8
F1.0
ssI01
(dp1409
g6
F0.0
sg7
F0.0001
sg8
F0.9999
ssssI11
(dp1410
I2
(dp1411
I00
(dp1412
g6
F0.0
sg7
F0.0
sg8
F1.0
ssI01
(dp1413
g6
F0.0
sg7
F0.0
sg8
F1.0
sssI3
(dp1414
I00
(dp1415
g6
F0.0
sg7
F0.0
sg8
F1.0
ssI01
(dp1416
g6
F0.0
sg7
F0.0
sg8
F1.0
sssI4
(dp1417
I00
(dp1418
g6
F0.0
sg7
F0.0
sg8
F1.0
ssI01
(dp1419
g6
F0.0
sg7
F0.0002
sg8
F0.9998
sssI5
(dp1420
I00
(dp1421
g6
F0.0
sg7
F0.0
sg8
F1.0
ssI01
(dp1422
g6
F0.0
sg7
F0.0
sg8
F1.0
sssI6
(dp1423
I00
(dp1424
g6
F0.0
sg7
F0.0
sg8
F1.0
ssI01
(dp1425
g6
F0.0
sg7
F0.0
sg8
F1.0
sssI7
(dp1426
I00
(dp1427
g6
F0.0
sg7
F0.0001
sg8
F0.9999
ssI01
(dp1428
g6
F0.0
sg7
F0.0
sg8
F1.0
sssI8
(dp1429
I00
(dp1430
g6
F0.0
sg7
F0.0
sg8
F1.0
ssI01
(dp1431
g6
F0.0
sg7
F0.0
sg8
F1.0
sssI9
(dp1432
I00
(dp1433
g6
F0.0
sg7
F0.0
sg8
F1.0
ssI01
(dp1434
g6
F0.0
sg7
F0.0
sg8
F1.0
sssI10
(dp1435
I00
(dp1436
g6
F0.0
sg7
F0.0
sg8
F1.0
ssI01
(dp1437
g6
F0.0
sg7
F0.0002
sg8
F0.9998
sssI11
(dp1438
I00
(dp1439
g6
F0.0
sg7
F0.0002
sg8
F0.9998
ssI01
(dp1440
ssI12
(dp1441
I00
(dp1442
g6
F0.0
sg7
F0.0002
sg8
F0.9998
ssI01
(dp1443
g6
F0.0
sg7
F0.0
sg8
F1.0
sssI13
(dp1444
I00
(dp1445
g6
F0.0
sg7
F0.0
sg8
F1.0
ssI01
(dp1446
g6
F0.0
sg7
F0.0
sg8
F1.0
sssI14
(dp1447
I00
(dp1448
g6
F0.0
sg7
F0.0
sg8
F1.0
ssI01
(dp1449
g6
F0.0
sg7
F0.0
sg8
F1.0
ssssI12
(dp1450
I2
(dp1451
I00
(dp1452
g6
F0.0
sg7
F0.0
sg8
F1.0
ssI01
(dp1453
g6
F0.0
sg7
F0.0
sg8
F1.0
sssI3
(dp1454
I00
(dp1455
g6
F0.0
sg7
F0.0
sg8
F1.0
ssI01
(dp1456
g6
F0.0
sg7
F0.0002
sg8
F0.9998
sssI4
(dp1457
I00
(dp1458
g6
F0.0
sg7
F0.0
sg8
F1.0
ssI01
(dp1459
g6
F0.0
sg7
F0.0001
sg8
F0.9999
sssI5
(dp1460
I00
(dp1461
g6
F0.0
sg7
F0.0001
sg8
F0.9999
ssI01
(dp1462
g6
F0.0
sg7
F0.0
sg8
F1.0
sssI6
(dp1463
I00
(dp1464
g6
F0.0
sg7
F0.0002
sg8
F0.9998
ssI01
(dp1465
g6
F0.0
sg7
F0.0
sg8
F1.0
sssI7
(dp1466
I00
(dp1467
g6
F0.0
sg7
F0.0
sg8
F1.0
ssI01
(dp1468
g6
F0.0
sg7
F0.0
sg8
F1.0
sssI8
(dp1469
I00
(dp1470
g6
F0.0
sg7
F0.0003
sg8
F0.9997
ssI01
(dp1471
g6
F0.0
sg7
F0.0
sg8
F1.0
sssI9
(dp1472
I00
(dp1473
g6
F0.0
sg7
F0.0002
sg8
F0.9998
ssI01
(dp1474
g6
F0.0
sg7
F0.0
sg8
F1.0
sssI10
(dp1475
I00
(dp1476
g6
F0.0
sg7
F0.0002
sg8
F0.9998
ssI01
(dp1477
g6
F0.0
sg7
F0.0
sg8
F1.0
sssI11
(dp1478
I00
(dp1479
g6
F0.0
sg7
F0.0002
sg8
F0.9998
ssI01
(dp1480
g6
F0.0
sg7
F0.0
sg8
F1.0
sssI12
(dp1481
I00
(dp1482
g6
F0.0
sg7
F0.0002
sg8
F0.9998
ssI01
(dp1483
ssI13
(dp1484
I00
(dp1485
g6
F0.0
sg7
F0.0
sg8
F1.0
ssI01
(dp1486
g6
F0.0
sg7
F0.0
sg8
F1.0
sssI14
(dp1487
I00
(dp1488
g6
F0.0
sg7
F0.0
sg8
F1.0
ssI01
(dp1489
g6
F0.0
sg7
F0.0
sg8
F1.0
ssssI13
(dp1490
I2
(dp1491
I00
(dp1492
g6
F0.0
sg7
F0.0
sg8
F1.0
ssI01
(dp1493
g6
F0.0
sg7
F0.0
sg8
F1.0
sssI3
(dp1494
I00
(dp1495
g6
F0.0
sg7
F0.0
sg8
F1.0
ssI01
(dp1496
g6
F0.0
sg7
F0.0
sg8
F1.0
sssI4
(dp1497
I00
(dp1498
g6
F0.0
sg7
F0.0001
sg8
F0.9999
ssI01
(dp1499
g6
F0.0
sg7
F0.0
sg8
F1.0
sssI5
(dp1500
I00
(dp1501
g6
F0.0
sg7
F0.0002
sg8
F0.9998
ssI01
(dp1502
g6
F0.0
sg7
F0.0
sg8
F1.0
sssI6
(dp1503
I00
(dp1504
g6
F0.0
sg7
F0.0
sg8
F1.0
ssI01
(dp1505
g6
F0.0
sg7
F0.0
sg8
F1.0
sssI7
(dp1506
I00
(dp1507
g6
F0.0
sg7
F0.0002
sg8
F0.9998
ssI01
(dp1508
g6
F0.0
sg7
F0.0001
sg8
F0.9999
sssI8
(dp1509
I00
(dp1510
g6
F0.0
sg7
F0.0
sg8
F1.0
ssI01
(dp1511
g6
F0.0
sg7
F0.0
sg8
F1.0
sssI9
(dp1512
I00
(dp1513
g6
F0.0
sg7
F0.0
sg8
F1.0
ssI01
(dp1514
g6
F0.0
sg7
F0.0
sg8
F1.0
sssI10
(dp1515
I00
(dp1516
g6
F0.0
sg7
F0.0
sg8
F1.0
ssI01
(dp1517
g6
F0.0
sg7
F0.0001
sg8
F0.9999
sssI11
(dp1518
I00
(dp1519
g6
F0.0
sg7
F0.0
sg8
F1.0
ssI01
(dp1520
g6
F0.0
sg7
F0.0
sg8
F1.0
sssI12
(dp1521
I00
(dp1522
g6
F0.0
sg7
F0.0
sg8
F1.0
ssI01
(dp1523
g6
F0.0
sg7
F0.0
sg8
F1.0
sssI13
(dp1524
I00
(dp1525
g6
F0.0
sg7
F0.0002
sg8
F0.9998
ssI01
(dp1526
ssI14
(dp1527
I00
(dp1528
g6
F0.0
sg7
F0.0
sg8
F1.0
ssI01
(dp1529
g6
F0.0
sg7
F0.0
sg8
F1.0
ssssI14
(dp1530
I2
(dp1531
I00
(dp1532
g6
F0.0
sg7
F0.0
sg8
F1.0
ssI01
(dp1533
g6
F0.0
sg7
F0.0
sg8
F1.0
sssI3
(dp1534
I00
(dp1535
g6
F0.0
sg7
F0.0
sg8
F1.0
ssI01
(dp1536
g6
F0.0
sg7
F0.0002
sg8
F0.9998
sssI4
(dp1537
I00
(dp1538
g6
F0.0
sg7
F0.0001
sg8
F0.9999
ssI01
(dp1539
g6
F0.0
sg7
F0.0001
sg8
F0.9999
sssI5
(dp1540
I00
(dp1541
g6
F0.0
sg7
F0.0002
sg8
F0.9998
ssI01
(dp1542
g6
F0.0
sg7
F0.0
sg8
F1.0
sssI6
(dp1543
I00
(dp1544
g6
F0.0
sg7
F0.0001
sg8
F0.9999
ssI01
(dp1545
g6
F0.0
sg7
F0.0
sg8
F1.0
sssI7
(dp1546
I00
(dp1547
g6
F0.0
sg7
F0.0
sg8
F1.0
ssI01
(dp1548
g6
F0.0
sg7
F0.0005
sg8
F0.9995
sssI8
(dp1549
I00
(dp1550
g6
F0.0
sg7
F0.0
sg8
F1.0
ssI01
(dp1551
g6
F0.0
sg7
F0.0003
sg8
F0.9997
sssI9
(dp1552
I00
(dp1553
g6
F0.0
sg7
F0.0
sg8
F1.0
ssI01
(dp1554
g6
F0.0
sg7
F0.0
sg8
F1.0
sssI10
(dp1555
I00
(dp1556
g6
F0.0
sg7
F0.0
sg8
F1.0
ssI01
(dp1557
g6
F0.0
sg7
F0.0001
sg8
F0.9999
sssI11
(dp1558
I00
(dp1559
g6
F0.0
sg7
F0.0
sg8
F1.0
ssI01
(dp1560
g6
F0.0
sg7
F0.0
sg8
F1.0
sssI12
(dp1561
I00
(dp1562
g6
F0.0
sg7
F0.0
sg8
F1.0
ssI01
(dp1563
g6
F0.0
sg7
F0.0
sg8
F1.0
sssI13
(dp1564
I00
(dp1565
g6
F0.0
sg7
F0.0
sg8
F1.0
ssI01
(dp1566
g6
F0.0
sg7
F0.0
sg8
F1.0
sssI14
(dp1567
I00
(dp1568
g6
F0.0
sg7
F0.0
sg8
F1.0
ssI01
(dp1569
ssssS'n'
p1570
(dp1571
I2
(dp1572
I2
(dp1573
I00
(dp1574
g6
F0.0
sg7
F0.9947
sg8
F0.0053
ssI01
(dp1575
ssI3
(dp1576
I00
(dp1577
g6
F1.0
sg7
F0.0
sg8
F0.0
ssI01
(dp1578
g6
F0.0
sg7
F0.9966
sg8
F0.0034
sssI4
(dp1579
I00
(dp1580
g6
F1.0
sg7
F0.0
sg8
F0.0
ssI01
(dp1581
g6
F0.0
sg7
F0.9979
sg8
F0.0021
sssI5
(dp1582
I00
(dp1583
g6
F1.0
sg7
F0.0
sg8
F0.0
ssI01
(dp1584
g6
F0.0
sg7
F0.9973
sg8
F0.0027
sssI6
(dp1585
I00
(dp1586
g6
F1.0
sg7
F0.0
sg8
F0.0
ssI01
(dp1587
g6
F0.0
sg7
F0.9952
sg8
F0.0048
sssI7
(dp1588
I00
(dp1589
g6
F1.0
sg7
F0.0
sg8
F0.0
ssI01
(dp1590
g6
F0.0
sg7
F0.9958
sg8
F0.0042
sssI8
(dp1591
I00
(dp1592
g6
F1.0
sg7
F0.0
sg8
F0.0
ssI01
(dp1593
g6
F0.0
sg7
F0.9967
sg8
F0.0033
sssI9
(dp1594
I00
(dp1595
g6
F1.0
sg7
F0.0
sg8
F0.0
ssI01
(dp1596
g6
F0.0
sg7
F0.9963
sg8
F0.0037
sssI10
(dp1597
I00
(dp1598
g6
F1.0
sg7
F0.0
sg8
F0.0
ssI01
(dp1599
g6
F0.0
sg7
F0.9965
sg8
F0.0035
sssI11
(dp1600
I00
(dp1601
g6
F1.0
sg7
F0.0
sg8
F0.0
ssI01
(dp1602
g6
F0.0
sg7
F0.9977
sg8
F0.0023
sssI12
(dp1603
I00
(dp1604
g6
F0.0
sg7
F0.9984
sg8
F0.0016
ssI01
(dp1605
g6
F0.0
sg7
F1.0
sg8
F0.0
sssI13
(dp1606
I00
(dp1607
g6
F0.0
sg7
F0.9991
sg8
F0.0009
ssI01
(dp1608
g6
F0.0
sg7
F0.9991
sg8
F0.0009
sssI14
(dp1609
I00
(dp1610
g6
F0.0
sg7
F0.9994
sg8
F0.0006
ssI01
(dp1611
g6
F0.0
sg7
F0.9996
sg8
F0.0004
ssssI3
(dp1612
I2
(dp1613
I00
(dp1614
g6
F1.0
sg7
F0.0
sg8
F0.0
ssI01
(dp1615
g6
F0.0
sg7
F0.9966
sg8
F0.0034
sssI3
(dp1616
I00
(dp1617
g6
F0.0
sg7
F0.9988
sg8
F0.0012
ssI01
(dp1618
ssI4
(dp1619
I00
(dp1620
g6
F1.0
sg7
F0.0
sg8
F0.0
ssI01
(dp1621
g6
F0.0
sg7
F0.9985
sg8
F0.0015
sssI5
(dp1622
I00
(dp1623
g6
F1.0
sg7
F0.0
sg8
F0.0
ssI01
(dp1624
g6
F0.0
sg7
F0.9996
sg8
F0.0004
sssI6
(dp1625
I00
(dp1626
g6
F1.0
sg7
F0.0
sg8
F0.0
ssI01
(dp1627
g6
F0.0
sg7
F0.9979
sg8
F0.0021
sssI7
(dp1628
I00
(dp1629
g6
F1.0
sg7
F0.0
sg8
F0.0
ssI01
(dp1630
g6
F0.0
sg7
F0.9996
sg8
F0.0004
sssI8
(dp1631
I00
(dp1632
g6
F1.0
sg7
F0.0
sg8
F0.0
ssI01
(dp1633
g6
F0.0
sg7
F0.9977
sg8
F0.0023
sssI9
(dp1634
I00
(dp1635
g6
F1.0
sg7
F0.0
sg8
F0.0
ssI01
(dp1636
g6
F0.0
sg7
F0.9978
sg8
F0.0022
sssI10
(dp1637
I00
(dp1638
g6
F1.0
sg7
F0.0
sg8
F0.0
ssI01
(dp1639
g6
F0.0
sg7
F0.9986
sg8
F0.0014
sssI11
(dp1640
I00
(dp1641
g6
F0.0
sg7
F0.9987
sg8
F0.0013
ssI01
(dp1642
g6
F0.0
sg7
F1.0
sg8
F0.0
sssI12
(dp1643
I00
(dp1644
g6
F0.0
sg7
F0.9983
sg8
F0.0017
ssI01
(dp1645
g6
F0.0
sg7
F1.0
sg8
F0.0
sssI13
(dp1646
I00
(dp1647
g6
F0.0
sg7
F0.9991
sg8
F0.0009
ssI01
(dp1648
g6
F0.0
sg7
F0.9998
sg8
F0.0002
sssI14
(dp1649
I00
(dp1650
g6
F0.0
sg7
F0.9999
sg8
F0.0001
ssI01
(dp1651
g6
F0.0
sg7
F1.0
sg8
F0.0
ssssI4
(dp1652
I2
(dp1653
I00
(dp1654
g6
F1.0
sg7
F0.0
sg8
F0.0
ssI01
(dp1655
g6
F0.0
sg7
F0.9979
sg8
F0.0021
sssI3
(dp1656
I00
(dp1657
g6
F1.0
sg7
F0.0
sg8
F0.0
ssI01
(dp1658
g6
F0.0
sg7
F0.9985
sg8
F0.0015
sssI4
(dp1659
I00
(dp1660
g6
F0.0
sg7
F1.0
sg8
F0.0
ssI01
(dp1661
ssI5
(dp1662
I00
(dp1663
g6
F0.0
sg7
F0.9991
sg8
F0.0009
ssI01
(dp1664
g6
F0.0
sg7
F0.9994
sg8
F0.0006
sssI6
(dp1665
I00
(dp1666
g6
F0.0
sg7
F0.9988
sg8
F0.0012
ssI01
(dp1667
g6
F0.0
sg7
F0.9994
sg8
F0.0006
sssI7
(dp1668
I00
(dp1669
g6
F0.9448
sg7
F0.0549
sg8
F0.0003
ssI01
(dp1670
g6
F0.0
sg7
F1.0
sg8
F0.0
sssI8
(dp1671
I00
(dp1672
g6
F1.0
sg7
F0.0
sg8
F0.0
ssI01
(dp1673
g6
F0.0
sg7
F0.9995
sg8
F0.0005
sssI9
(dp1674
I00
(dp1675
g6
F1.0
sg7
F0.0
sg8
F0.0
ssI01
(dp1676
g6
F0.0
sg7
F0.9988
sg8
F0.0012
sssI10
(dp1677
I00
(dp1678
g6
F0.2516
sg7
F0.7465
sg8
F0.0019
ssI01
(dp1679
g6
F0.0
sg7
F0.9996
sg8
F0.0004
sssI11
(dp1680
I00
(dp1681
g6
F0.0
sg7
F0.9986
sg8
F0.0014
ssI01
(dp1682
g6
F0.0
sg7
F0.9997
sg8
F0.0003
sssI12
(dp1683
I00
(dp1684
g6
F0.0
sg7
F0.9988
sg8
F0.0012
ssI01
(dp1685
g6
F0.0
sg7
F0.999
sg8
F0.001
sssI13
(dp1686
I00
(dp1687
g6
F0.0
sg7
F0.9993
sg8
F0.0007
ssI01
(dp1688
g6
F0.0
sg7
F0.9995
sg8
F0.0005
sssI14
(dp1689
I00
(dp1690
g6
F0.0
sg7
F1.0
sg8
F0.0
ssI01
(dp1691
g6
F0.0
sg7
F1.0
sg8
F0.0
ssssI5
(dp1692
I2
(dp1693
I00
(dp1694
g6
F1.0
sg7
F0.0
sg8
F0.0
ssI01
(dp1695
g6
F0.0
sg7
F0.9973
sg8
F0.0027
sssI3
(dp1696
I00
(dp1697
g6
F1.0
sg7
F0.0
sg8
F0.0
ssI01
(dp1698
g6
F0.0
sg7
F0.9996
sg8
F0.0004
sssI4
(dp1699
I00
(dp1700
g6
F0.0
sg7
F0.9991
sg8
F0.0009
ssI01
(dp1701
g6
F0.0
sg7
F0.9994
sg8
F0.0006
sssI5
(dp1702
I00
(dp1703
g6
F0.0
sg7
F1.0
sg8
F0.0
ssI01
(dp1704
ssI6
(dp1705
I00
(dp1706
g6
F0.0
sg7
F0.999
sg8
F0.001
ssI01
(dp1707
g6
F0.0
sg7
F1.0
sg8
F0.0
sssI7
(dp1708
I00
(dp1709
g6
F0.0
sg7
F0.9993
sg8
F0.0007
ssI01
(dp1710
g6
F0.0
sg7
F0.9996
sg8
F0.0004
sssI8
(dp1711
I00
(dp1712
g6
F0.0
sg7
F0.9985
sg8
F0.0015
ssI01
(dp1713
g6
F0.0
sg7
F0.9995
sg8
F0.0005
sssI9
(dp1714
I00
(dp1715
g6
F0.0
sg7
F0.9983
sg8
F0.0017
ssI01
(dp1716
g6
F0.0
sg7
F0.9996
sg8
F0.0004
sssI10
(dp1717
I00
(dp1718
g6
F0.0
sg7
F0.998
sg8
F0.002
ssI01
(dp1719
g6
F0.0
sg7
F1.0
sg8
F0.0
sssI11
(dp1720
I00
(dp1721
g6
F0.0
sg7
F0.9987
sg8
F0.0013
ssI01
(dp1722
g6
F0.0
sg7
F0.9991
sg8
F0.0009
sssI12
(dp1723
I00
(dp1724
g6
F0.0
sg7
F0.9992
sg8
F0.0008
ssI01
(dp1725
g6
F0.0
sg7
F1.0
sg8
F0.0
sssI13
(dp1726
I00
(dp1727
g6
F0.0
sg7
F0.9997
sg8
F0.0003
ssI01
(dp1728
g6
F0.0
sg7
F0.9997
sg8
F0.0003
sssI14
(dp1729
I00
(dp1730
g6
F0.0
sg7
F0.9999
sg8
F0.0001
ssI01
(dp1731
g6
F0.0
sg7
F1.0
sg8
F0.0
ssssI6
(dp1732
I2
(dp1733
I00
(dp1734
g6
F1.0
sg7
F0.0
sg8
F0.0
ssI01
(dp1735
g6
F0.0
sg7
F0.9952
sg8
F0.0048
sssI3
(dp1736
I00
(dp1737
g6
F1.0
sg7
F0.0
sg8
F0.0
ssI01
(dp1738
g6
F0.0
sg7
F0.9979
sg8
F0.0021
sssI4
(dp1739
I00
(dp1740
g6
F0.0
sg7
F0.9988
sg8
F0.0012
ssI01
(dp1741
g6
F0.0
sg7
F0.9994
sg8
F0.0006
sssI5
(dp1742
I00
(dp1743
g6
F0.0
sg7
F0.999
sg8
F0.001
ssI01
(dp1744
g6
F0.0
sg7
F1.0
sg8
F0.0
sssI6
(dp1745
I00
(dp1746
g6
F0.0
sg7
F1.0
sg8
F0.0
ssI01
(dp1747
ssI7
(dp1748
I00
(dp1749
g6
F0.0
sg7
F0.9994
sg8
F0.0006
ssI01
(dp1750
g6
F0.0
sg7
F1.0
sg8
F0.0
sssI8
(dp1751
I00
(dp1752
g6
F0.0
sg7
F0.999
sg8
F0.001
ssI01
(dp1753
g6
F0.0
sg7
F0.9997
sg8
F0.0003
sssI9
(dp1754
I00
(dp1755
g6
F0.0
sg7
F0.999
sg8
F0.001
ssI01
(dp1756
g6
F0.0
sg7
F0.9995
sg8
F0.0005
sssI10
(dp1757
I00
(dp1758
g6
F0.0
sg7
F0.9988
sg8
F0.0012
ssI01
(dp1759
g6
F0.0
sg7
F0.9994
sg8
F0.0006
sssI11
(dp1760
I00
(dp1761
g6
F0.0
sg7
F0.9988
sg8
F0.0012
ssI01
(dp1762
g6
F0.0
sg7
F0.9994
sg8
F0.0006
sssI12
(dp1763
I00
(dp1764
g6
F0.0
sg7
F0.9993
sg8
F0.0007
ssI01
(dp1765
g6
F0.0
sg7
F1.0
sg8
F0.0
sssI13
(dp1766
I00
(dp1767
g6
F0.0
sg7
F0.9996
sg8
F0.0004
ssI01
(dp1768
g6
F0.0
sg7
F0.9998
sg8
F0.0002
sssI14
(dp1769
I00
(dp1770
g6
F0.0
sg7
F0.9995
sg8
F0.0005
ssI01
(dp1771
g6
F0.0
sg7
F1.0
sg8
F0.0
ssssI7
(dp1772
I2
(dp1773
I00
(dp1774
g6
F1.0
sg7
F0.0
sg8
F0.0
ssI01
(dp1775
g6
F0.0
sg7
F0.9958
sg8
F0.0042
sssI3
(dp1776
I00
(dp1777
g6
F1.0
sg7
F0.0
sg8
F0.0
ssI01
(dp1778
g6
F0.0
sg7
F0.9996
sg8
F0.0004
sssI4
(dp1779
I00
(dp1780
g6
F0.9448
sg7
F0.0549
sg8
F0.0003
ssI01
(dp1781
g6
F0.0
sg7
F1.0
sg8
F0.0
sssI5
(dp1782
I00
(dp1783
g6
F0.0
sg7
F0.9993
sg8
F0.0007
ssI01
(dp1784
g6
F0.0
sg7
F0.9996
sg8
F0.0004
sssI6
(dp1785
I00
(dp1786
g6
F0.0
sg7
F0.9994
sg8
F0.0006
ssI01
(dp1787
g6
F0.0
sg7
F1.0
sg8
F0.0
sssI7
(dp1788
I00
(dp1789
g6
F0.0
sg7
F1.0
sg8
F0.0
ssI01
(dp1790
ssI8
(dp1791
I00
(dp1792
g6
F0.0
sg7
F0.9993
sg8
F0.0007
ssI01
(dp1793
g6
F0.0
sg7
F1.0
sg8
F0.0
sssI9
(dp1794
I00
(dp1795
g6
F0.0
sg7
F0.9995
sg8
F0.0005
ssI01
(dp1796
g6
F0.0
sg7
F0.9997
sg8
F0.0003
sssI10
(dp1797
I00
(dp1798
g6
F0.0
sg7
F0.9992
sg8
F0.0008
ssI01
(dp1799
g6
F0.0
sg7
F0.9998
sg8
F0.0002
sssI11
(dp1800
I00
(dp1801
g6
F0.0
sg7
F0.9992
sg8
F0.0008
ssI01
(dp1802
g6
F0.0
sg7
F1.0
sg8
F0.0
sssI12
(dp1803
I00
(dp1804
g6
F0.0
sg7
F0.9993
sg8
F0.0007
ssI01
(dp1805
g6
F0.0
sg7
F0.9999
sg8
F0.0001
sssI13
(dp1806
I00
(dp1807
g6
F0.0
sg7
F0.9997
sg8
F0.0003
ssI01
(dp1808
g6
F0.0
sg7
F0.9999
sg8
F0.0001
sssI14
(dp1809
I00
(dp1810
g6
F0.0
sg7
F0.9994
sg8
F0.0006
ssI01
(dp1811
g6
F0.0
sg7
F0.9999
sg8
F0.0001
ssssI8
(dp1812
I2
(dp1813
I00
(dp1814
g6
F1.0
sg7
F0.0
sg8
F0.0
ssI01
(dp1815
g6
F0.0
sg7
F0.9967
sg8
F0.0033
sssI3
(dp1816
I00
(dp1817
g6
F1.0
sg7
F0.0
sg8
F0.0
ssI01
(dp1818
g6
F0.0
sg7
F0.9977
sg8
F0.0023
sssI4
(dp1819
I00
(dp1820
g6
F1.0
sg7
F0.0
sg8
F0.0
ssI01
(dp1821
g6
F0.0
sg7
F0.9995
sg8
F0.0005
sssI5
(dp1822
I00
(dp1823
g6
F0.0
sg7
F0.9985
sg8
F0.0015
ssI01
(dp1824
g6
F0.0
sg7
F0.9995
sg8
F0.0005
sssI6
(dp1825
I00
(dp1826
g6
F0.0
sg7
F0.999
sg8
F0.001
ssI01
(dp1827
g6
F0.0
sg7
F0.9997
sg8
F0.0003
sssI7
(dp1828
I00
(dp1829
g6
F0.0
sg7
F0.9993
sg8
F0.0007
ssI01
(dp1830
g6
F0.0
sg7
F1.0
sg8
F0.0
sssI8
(dp1831
I00
(dp1832
g6
F0.0
sg7
F1.0
sg8
F0.0
ssI01
(dp1833
ssI9
(dp1834
I00
(dp1835
g6
F0.0
sg7
F0.9993
sg8
F0.0007
ssI01
(dp1836
g6
F0.0
sg7
F0.9999
sg8
F0.0001
sssI10
(dp1837
I00
(dp1838
g6
F0.0
sg7
F0.9992
sg8
F0.0008
ssI01
(dp1839
g6
F0.0
sg7
F1.0
sg8
F0.0
sssI11
(dp1840
I00
(dp1841
g6
F0.0
sg7
F0.9992
sg8
F0.0008
ssI01
(dp1842
g6
F0.0
sg7
F1.0
sg8
F0.0
sssI12
(dp1843
I00
(dp1844
g6
F0.0
sg7
F0.9995
sg8
F0.0005
ssI01
(dp1845
g6
F0.0
sg7
F0.9998
sg8
F0.0002
sssI13
(dp1846
I00
(dp1847
g6
F0.0
sg7
F0.9995
sg8
F0.0005
ssI01
(dp1848
g6
F0.0
sg7
F0.9998
sg8
F0.0002
sssI14
(dp1849
I00
(dp1850
g6
F0.0
sg7
F0.9988
sg8
F0.0012
ssI01
(dp1851
g6
F0.0
sg7
F0.9997
sg8
F0.0003
ssssI9
(dp1852
I2
(dp1853
I00
(dp1854
g6
F1.0
sg7
F0.0
sg8
F0.0
ssI01
(dp1855
g6
F0.0
sg7
F0.9963
sg8
F0.0037
sssI3
(dp1856
I00
(dp1857
g6
F1.0
sg7
F0.0
sg8
F0.0
ssI01
(dp1858
g6
F0.0
sg7
F0.9978
sg8
F0.0022
sssI4
(dp1859
I00
(dp1860
g6
F1.0
sg7
F0.0
sg8
F0.0
ssI01
(dp1861
g6
F0.0
sg7
F0.9988
sg8
F0.0012
sssI5
(dp1862
I00
(dp1863
g6
F0.0
sg7
F0.9983
sg8
F0.0017
ssI01
(dp1864
g6
F0.0
sg7
F0.9996
sg8
F0.0004
sssI6
(dp1865
I00
(dp1866
g6
F0.0
sg7
F0.999
sg8
F0.001
ssI01
(dp1867
g6
F0.0
sg7
F0.9995
sg8
F0.0005
sssI7
(dp1868
I00
(dp1869
g6
F0.0
sg7
F0.9995
sg8
F0.0005
ssI01
(dp1870
g6
F0.0
sg7
F0.9997
sg8
F0.0003
sssI8
(dp1871
I00
(dp1872
g6
F0.0
sg7
F0.9993
sg8
F0.0007
ssI01
(dp1873
g6
F0.0
sg7
F0.9999
sg8
F0.0001
sssI9
(dp1874
I00
(dp1875
g6
F0.0
sg7
F1.0
sg8
F0.0
ssI01
(dp1876
ssI10
(dp1877
I00
(dp1878
g6
F0.0
sg7
F0.9993
sg8
F0.0007
ssI01
(dp1879
g6
F0.0
sg7
F0.9998
sg8
F0.0002
sssI11
(dp1880
I00
(dp1881
g6
F0.0
sg7
F0.9994
sg8
F0.0006
ssI01
(dp1882
g6
F0.0
sg7
F0.9997
sg8
F0.0003
sssI12
(dp1883
I00
(dp1884
g6
F0.0
sg7
F0.9997
sg8
F0.0003
ssI01
(dp1885
g6
F0.0
sg7
F0.9998
sg8
F0.0002
sssI13
(dp1886
I00
(dp1887
g6
F0.0
sg7
F1.0
sg8
F0.0
ssI01
(dp1888
g6
F0.0
sg7
F1.0
sg8
F0.0
sssI14
(dp1889
I00
(dp1890
g6
F0.0
sg7
F0.9996
sg8
F0.0004
ssI01
(dp1891
g6
F0.0
sg7
F1.0
sg8
F0.0
ssssI10
(dp1892
I2
(dp1893
I00
(dp1894
g6
F1.0
sg7
F0.0
sg8
F0.0
ssI01
(dp1895
g6
F0.0
sg7
F0.9965
sg8
F0.0035
sssI3
(dp1896
I00
(dp1897
g6
F1.0
sg7
F0.0
sg8
F0.0
ssI01
(dp1898
g6
F0.0
sg7
F0.9986
sg8
F0.0014
sssI4
(dp1899
I00
(dp1900
g6
F0.2516
sg7
F0.7465
sg8
F0.0019
ssI01
(dp1901
g6
F0.0
sg7
F0.9996
sg8
F0.0004
sssI5
(dp1902
I00
(dp1903
g6
F0.0
sg7
F0.998
sg8
F0.002
ssI01
(dp1904
g6
F0.0
sg7
F1.0
sg8
F0.0
sssI6
(dp1905
I00
(dp1906
g6
F0.0
sg7
F0.9988
sg8
F0.0012
ssI01
(dp1907
g6
F0.0
sg7
F0.9994
sg8
F0.0006
sssI7
(dp1908
I00
(dp1909
g6
F0.0
sg7
F0.9992
sg8
F0.0008
ssI01
(dp1910
g6
F0.0
sg7
F0.9998
sg8
F0.0002
sssI8
(dp1911
I00
(dp1912
g6
F0.0
sg7
F0.9992
sg8
F0.0008
ssI01
(dp1913
g6
F0.0
sg7
F1.0
sg8
F0.0
sssI9
(dp1914
I00
(dp1915
g6
F0.0
sg7
F0.9993
sg8
F0.0007
ssI01
(dp1916
g6
F0.0
sg7
F0.9998
sg8
F0.0002
sssI10
(dp1917
I00
(dp1918
g6
F0.0
sg7
F1.0
sg8
F0.0
ssI01
(dp1919
ssI11
(dp1920
I00
(dp1921
g6
F0.0
sg7
F0.9996
sg8
F0.0004
ssI01
(dp1922
g6
F0.0
sg7
F1.0
sg8
F0.0
sssI12
(dp1923
I00
(dp1924
g6
F0.0
sg7
F0.9996
sg8
F0.0004
ssI01
(dp1925
g6
F0.0
sg7
F1.0
sg8
F0.0
sssI13
(dp1926
I00
(dp1927
g6
F0.0
sg7
F0.9996
sg8
F0.0004
ssI01
(dp1928
g6
F0.0
sg7
F1.0
sg8
F0.0
sssI14
(dp1929
I00
(dp1930
g6
F0.0
sg7
F1.0
sg8
F0.0
ssI01
(dp1931
g6
F0.0
sg7
F0.9992
sg8
F0.0008
ssssI11
(dp1932
I2
(dp1933
I00
(dp1934
g6
F1.0
sg7
F0.0
sg8
F0.0
ssI01
(dp1935
g6
F0.0
sg7
F0.9977
sg8
F0.0023
sssI3
(dp1936
I00
(dp1937
g6
F0.0
sg7
F0.9987
sg8
F0.0013
ssI01
(dp1938
g6
F0.0
sg7
F1.0
sg8
F0.0
sssI4
(dp1939
I00
(dp1940
g6
F0.0
sg7
F0.9986
sg8
F0.0014
ssI01
(dp1941
g6
F0.0
sg7
F0.9997
sg8
F0.0003
sssI5
(dp1942
I00
(dp1943
g6
F0.0
sg7
F0.9987
sg8
F0.0013
ssI01
(dp1944
g6
F0.0
sg7
F0.9991
sg8
F0.0009
sssI6
(dp1945
I00
(dp1946
g6
F0.0
sg7
F0.9988
sg8
F0.0012
ssI01
(dp1947
g6
F0.0
sg7
F0.9994
sg8
F0.0006
sssI7
(dp1948
I00
(dp1949
g6
F0.0
sg7
F0.9992
sg8
F0.0008
ssI01
(dp1950
g6
F0.0
sg7
F1.0
sg8
F0.0
sssI8
(dp1951
I00
(dp1952
g6
F0.0
sg7
F0.9992
sg8
F0.0008
ssI01
(dp1953
g6
F0.0
sg7
F1.0
sg8
F0.0
sssI9
(dp1954
I00
(dp1955
g6
F0.0
sg7
F0.9994
sg8
F0.0006
ssI01
(dp1956
g6
F0.0
sg7
F0.9997
sg8
F0.0003
sssI10
(dp1957
I00
(dp1958
g6
F0.0
sg7
F0.9996
sg8
F0.0004
ssI01
(dp1959
g6
F0.0
sg7
F1.0
sg8
F0.0
sssI11
(dp1960
I00
(dp1961
g6
F0.0
sg7
F1.0
sg8
F0.0
ssI01
(dp1962
ssI12
(dp1963
I00
(dp1964
g6
F0.0
sg7
F0.9997
sg8
F0.0003
ssI01
(dp1965
g6
F0.0
sg7
F1.0
sg8
F0.0
sssI13
(dp1966
I00
(dp1967
g6
F0.0
sg7
F0.9995
sg8
F0.0005
ssI01
(dp1968
g6
F0.0
sg7
F1.0
sg8
F0.0
sssI14
(dp1969
I00
(dp1970
g6
F0.0
sg7
F1.0
sg8
F0.0
ssI01
(dp1971
g6
F0.0
sg7
F0.9993
sg8
F0.0007
ssssI12
(dp1972
I2
(dp1973
I00
(dp1974
g6
F0.0
sg7
F0.9984
sg8
F0.0016
ssI01
(dp1975
g6
F0.0
sg7
F1.0
sg8
F0.0
sssI3
(dp1976
I00
(dp1977
g6
F0.0
sg7
F0.9983
sg8
F0.0017
ssI01
(dp1978
g6
F0.0
sg7
F1.0
sg8
F0.0
sssI4
(dp1979
I00
(dp1980
g6
F0.0
sg7
F0.9988
sg8
F0.0012
ssI01
(dp1981
g6
F0.0
sg7
F0.999
sg8
F0.001
sssI5
(dp1982
I00
(dp1983
g6
F0.0
sg7
F0.9992
sg8
F0.0008
ssI01
(dp1984
g6
F0.0
sg7
F1.0
sg8
F0.0
sssI6
(dp1985
I00
(dp1986
g6
F0.0
sg7
F0.9993
sg8
F0.0007
ssI01
(dp1987
g6
F0.0
sg7
F1.0
sg8
F0.0
sssI7
(dp1988
I00
(dp1989
g6
F0.0
sg7
F0.9993
sg8
F0.0007
ssI01
(dp1990
g6
F0.0
sg7
F0.9999
sg8
F0.0001
sssI8
(dp1991
I00
(dp1992
g6
F0.0
sg7
F0.9995
sg8
F0.0005
ssI01
(dp1993
g6
F0.0
sg7
F0.9998
sg8
F0.0002
sssI9
(dp1994
I00
(dp1995
g6
F0.0
sg7
F0.9997
sg8
F0.0003
ssI01
(dp1996
g6
F0.0
sg7
F0.9998
sg8
F0.0002
sssI10
(dp1997
I00
(dp1998
g6
F0.0
sg7
F0.9996
sg8
F0.0004
ssI01
(dp1999
g6
F0.0
sg7
F1.0
sg8
F0.0
sssI11
(dp2000
I00
(dp2001
g6
F0.0
sg7
F0.9997
sg8
F0.0003
ssI01
(dp2002
g6
F0.0
sg7
F1.0
sg8
F0.0
sssI12
(dp2003
I00
(dp2004
g6
F0.0
sg7
F1.0
sg8
F0.0
ssI01
(dp2005
ssI13
(dp2006
I00
(dp2007
g6
F0.0
sg7
F0.9996
sg8
F0.0004
ssI01
(dp2008
g6
F0.0
sg7
F1.0
sg8
F0.0
sssI14
(dp2009
I00
(dp2010
g6
F0.0
sg7
F1.0
sg8
F0.0
ssI01
(dp2011
g6
F0.0
sg7
F0.9992
sg8
F0.0008
ssssI13
(dp2012
I2
(dp2013
I00
(dp2014
g6
F0.0
sg7
F0.9991
sg8
F0.0009
ssI01
(dp2015
g6
F0.0
sg7
F0.9991
sg8
F0.0009
sssI3
(dp2016
I00
(dp2017
g6
F0.0
sg7
F0.9991
sg8
F0.0009
ssI01
(dp2018
g6
F0.0
sg7
F0.9998
sg8
F0.0002
sssI4
(dp2019
I00
(dp2020
g6
F0.0
sg7
F0.9993
sg8
F0.0007
ssI01
(dp2021
g6
F0.0
sg7
F0.9995
sg8
F0.0005
sssI5
(dp2022
I00
(dp2023
g6
F0.0
sg7
F0.9997
sg8
F0.0003
ssI01
(dp2024
g6
F0.0
sg7
F0.9997
sg8
F0.0003
sssI6
(dp2025
I00
(dp2026
g6
F0.0
sg7
F0.9996
sg8
F0.0004
ssI01
(dp2027
g6
F0.0
sg7
F0.9998
sg8
F0.0002
sssI7
(dp2028
I00
(dp2029
g6
F0.0
sg7
F0.9997
sg8
F0.0003
ssI01
(dp2030
g6
F0.0
sg7
F0.9999
sg8
F0.0001
sssI8
(dp2031
I00
(dp2032
g6
F0.0
sg7
F0.9995
sg8
F0.0005
ssI01
(dp2033
g6
F0.0
sg7
F0.9998
sg8
F0.0002
sssI9
(dp2034
I00
(dp2035
g6
F0.0
sg7
F1.0
sg8
F0.0
ssI01
(dp2036
g6
F0.0
sg7
F1.0
sg8
F0.0
sssI10
(dp2037
I00
(dp2038
g6
F0.0
sg7
F0.9996
sg8
F0.0004
ssI01
(dp2039
g6
F0.0
sg7
F1.0
sg8
F0.0
sssI11
(dp2040
I00
(dp2041
g6
F0.0
sg7
F0.9995
sg8
F0.0005
ssI01
(dp2042
g6
F0.0
sg7
F1.0
sg8
F0.0
sssI12
(dp2043
I00
(dp2044
g6
F0.0
sg7
F0.9996
sg8
F0.0004
ssI01
(dp2045
g6
F0.0
sg7
F1.0
sg8
F0.0
sssI13
(dp2046
I00
(dp2047
g6
F0.0
sg7
F1.0
sg8
F0.0
ssI01
(dp2048
ssI14
(dp2049
I00
(dp2050
g6
F0.0
sg7
F0.9998
sg8
F0.0002
ssI01
(dp2051
g6
F0.0
sg7
F1.0
sg8
F0.0
ssssI14
(dp2052
I2
(dp2053
I00
(dp2054
g6
F0.0
sg7
F0.9994
sg8
F0.0006
ssI01
(dp2055
g6
F0.0
sg7
F0.9996
sg8
F0.0004
sssI3
(dp2056
I00
(dp2057
g6
F0.0
sg7
F0.9999
sg8
F0.0001
ssI01
(dp2058
g6
F0.0
sg7
F1.0
sg8
F0.0
sssI4
(dp2059
I00
(dp2060
g6
F0.0
sg7
F1.0
sg8
F0.0
ssI01
(dp2061
g6
F0.0
sg7
F1.0
sg8
F0.0
sssI5
(dp2062
I00
(dp2063
g6
F0.0
sg7
F0.9999
sg8
F0.0001
ssI01
(dp2064
g6
F0.0
sg7
F1.0
sg8
F0.0
sssI6
(dp2065
I00
(dp2066
g6
F0.0
sg7
F0.9995
sg8
F0.0005
ssI01
(dp2067
g6
F0.0
sg7
F1.0
sg8
F0.0
sssI7
(dp2068
I00
(dp2069
g6
F0.0
sg7
F0.9994
sg8
F0.0006
ssI01
(dp2070
g6
F0.0
sg7
F0.9999
sg8
F0.0001
sssI8
(dp2071
I00
(dp2072
g6
F0.0
sg7
F0.9988
sg8
F0.0012
ssI01
(dp2073
g6
F0.0
sg7
F0.9997
sg8
F0.0003
sssI9
(dp2074
I00
(dp2075
g6
F0.0
sg7
F0.9996
sg8
F0.0004
ssI01
(dp2076
g6
F0.0
sg7
F1.0
sg8
F0.0
sssI10
(dp2077
I00
(dp2078
g6
F0.0
sg7
F1.0
sg8
F0.0
ssI01
(dp2079
g6
F0.0
sg7
F0.9992
sg8
F0.0008
sssI11
(dp2080
I00
(dp2081
g6
F0.0
sg7
F1.0
sg8
F0.0
ssI01
(dp2082
g6
F0.0
sg7
F0.9993
sg8
F0.0007
sssI12
(dp2083
I00
(dp2084
g6
F0.0
sg7
F1.0
sg8
F0.0
ssI01
(dp2085
g6
F0.0
sg7
F0.9992
sg8
F0.0008
sssI13
(dp2086
I00
(dp2087
g6
F0.0
sg7
F0.9998
sg8
F0.0002
ssI01
(dp2088
g6
F0.0
sg7
F1.0
sg8
F0.0
sssI14
(dp2089
I00
(dp2090
g6
F0.0
sg7
F0.9949
sg8
F0.0051
ssI01
(dp2091
ssssS'r'
p2092
(dp2093
I2
(dp2094
I2
(dp2095
I00
(dp2096
g6
F0.0
sg7
F0.4565
sg8
F0.5435
ssI01
(dp2097
ssI3
(dp2098
I00
(dp2099
g6
F1.0
sg7
F0.0
sg8
F0.0
ssI01
(dp2100
g6
F0.0
sg7
F0.0
sg8
F1.0
sssI4
(dp2101
I00
(dp2102
g6
F1.0
sg7
F0.0
sg8
F0.0
ssI01
(dp2103
g6
F0.0
sg7
F0.0
sg8
F1.0
sssI5
(dp2104
I00
(dp2105
g6
F0.8626
sg7
F0.0
sg8
F0.1374
ssI01
(dp2106
g6
F0.0
sg7
F0.0
sg8
F1.0
sssI6
(dp2107
I00
(dp2108
g6
F1.0
sg7
F0.0
sg8
F0.0
ssI01
(dp2109
g6
F0.0
sg7
F0.0
sg8
F1.0
sssI7
(dp2110
I00
(dp2111
g6
F1.0
sg7
F0.0
sg8
F0.0
ssI01
(dp2112
g6
F0.0
sg7
F0.0
sg8
F1.0
sssI8
(dp2113
I00
(dp2114
g6
F1.0
sg7
F0.0
sg8
F0.0
ssI01
(dp2115
g6
F0.0
sg7
F0.0
sg8
F1.0
sssI9
(dp2116
I00
(dp2117
g6
F0.3121
sg7
F0.0
sg8
F0.6879
ssI01
(dp2118
g6
F0.0
sg7
F0.0
sg8
F1.0
sssI10
(dp2119
I00
(dp2120
g6
F0.0
sg7
F0.0
sg8
F1.0
ssI01
(dp2121
g6
F0.0
sg7
F0.0083
sg8
F0.9917
sssI11
(dp2122
I00
(dp2123
g6
F0.0
sg7
F0.0
sg8
F1.0
ssI01
(dp2124
g6
F0.0
sg7
F0.0226
sg8
F0.9774
sssI12
(dp2125
I00
(dp2126
g6
F0.0
sg7
F0.0
sg8
F1.0
ssI01
(dp2127
g6
F0.0
sg7
F0.0057
sg8
F0.9943
sssI13
(dp2128
I00
(dp2129
g6
F0.0
sg7
F0.0
sg8
F1.0
ssI01
(dp2130
g6
F0.0
sg7
F0.0
sg8
F1.0
sssI14
(dp2131
I00
(dp2132
g6
F0.0
sg7
F0.0
sg8
F1.0
ssI01
(dp2133
g6
F0.0
sg7
F0.0019
sg8
F0.9981
ssssI3
(dp2134
I2
(dp2135
I00
(dp2136
g6
F1.0
sg7
F0.0
sg8
F0.0
ssI01
(dp2137
g6
F0.0
sg7
F0.0
sg8
F1.0
sssI3
(dp2138
I00
(dp2139
g6
F0.0
sg7
F0.8343
sg8
F0.1657
ssI01
(dp2140
ssI4
(dp2141
I00
(dp2142
g6
F0.0
sg7
F0.0
sg8
F1.0
ssI01
(dp2143
g6
F0.0
sg7
F0.6786
sg8
F0.3214
sssI5
(dp2144
I00
(dp2145
g6
F0.0
sg7
F0.0
sg8
F1.0
ssI01
(dp2146
g6
F0.0
sg7
F0.6792
sg8
F0.3208
sssI6
(dp2147
I00
(dp2148
g6
F0.0
sg7
F0.0
sg8
F1.0
ssI01
(dp2149
g6
F0.0
sg7
F0.2118
sg8
F0.7882
sssI7
(dp2150
I00
(dp2151
g6
F0.7351
sg7
F0.0
sg8
F0.2649
ssI01
(dp2152
g6
F0.0
sg7
F0.0
sg8
F1.0
sssI8
(dp2153
I00
(dp2154
g6
F1.0
sg7
F0.0
sg8
F0.0
ssI01
(dp2155
g6
F0.0
sg7
F0.0
sg8
F1.0
sssI9
(dp2156
I00
(dp2157
g6
F0.0
sg7
F0.0
sg8
F1.0
ssI01
(dp2158
g6
F0.0
sg7
F0.0305
sg8
F0.9695
sssI10
(dp2159
I00
(dp2160
g6
F0.0
sg7
F0.0
sg8
F1.0
ssI01
(dp2161
g6
F0.0
sg7
F0.1558
sg8
F0.8442
sssI11
(dp2162
I00
(dp2163
g6
F0.0
sg7
F0.0
sg8
F1.0
ssI01
(dp2164
g6
F0.0
sg7
F0.2376
sg8
F0.7624
sssI12
(dp2165
I00
(dp2166
g6
F0.0
sg7
F0.0
sg8
F1.0
ssI01
(dp2167
g6
F0.0
sg7
F0.2292
sg8
F0.7708
sssI13
(dp2168
I00
(dp2169
g6
F0.0
sg7
F0.0
sg8
F1.0
ssI01
(dp2170
g6
F0.0
sg7
F0.1586
sg8
F0.8414
sssI14
(dp2171
I00
(dp2172
g6
F0.0
sg7
F0.0
sg8
F1.0
ssI01
(dp2173
g6
F0.0
sg7
F0.3758
sg8
F0.6242
ssssI4
(dp2174
I2
(dp2175
I00
(dp2176
g6
F1.0
sg7
F0.0
sg8
F0.0
ssI01
(dp2177
g6
F0.0
sg7
F0.0
sg8
F1.0
sssI3
(dp2178
I00
(dp2179
g6
F0.0
sg7
F0.0
sg8
F1.0
ssI01
(dp2180
g6
F0.0
sg7
F0.6786
sg8
F0.3214
sssI4
(dp2181
I00
(dp2182
g6
F0.0
sg7
F1.0
sg8
F0.0
ssI01
(dp2183
ssI5
(dp2184
I00
(dp2185
g6
F0.0
sg7
F0.0398
sg8
F0.9602
ssI01
(dp2186
g6
F0.0
sg7
F1.0
sg8
F0.0
sssI6
(dp2187
I00
(dp2188
g6
F0.0
sg7
F0.0
sg8
F1.0
ssI01
(dp2189
g6
F0.0
sg7
F0.8642
sg8
F0.1358
sssI7
(dp2190
I00
(dp2191
g6
F0.0
sg7
F0.0
sg8
F1.0
ssI01
(dp2192
g6
F0.0
sg7
F0.421
sg8
F0.579
sssI8
(dp2193
I00
(dp2194
g6
F0.0
sg7
F0.0
sg8
F1.0
ssI01
(dp2195
g6
F0.0
sg7
F0.136
sg8
F0.864
sssI9
(dp2196
I00
(dp2197
g6
F0.0
sg7
F0.0
sg8
F1.0
ssI01
(dp2198
g6
F0.0
sg7
F0.0154
sg8
F0.9846
sssI10
(dp2199
I00
(dp2200
g6
F0.0
sg7
F0.0
sg8
F1.0
ssI01
(dp2201
g6
F0.0
sg7
F0.4091
sg8
F0.5909
sssI11
(dp2202
I00
(dp2203
g6
F0.0
sg7
F0.0
sg8
F1.0
ssI01
(dp2204
g6
F0.0
sg7
F0.53
sg8
F0.47
sssI12
(dp2205
I00
(dp2206
g6
F0.0
sg7
F0.0132
sg8
F0.9868
ssI01
(dp2207
g6
F0.0
sg7
F0.5943
sg8
F0.4057
sssI13
(dp2208
I00
(dp2209
g6
F0.0
sg7
F0.0483
sg8
F0.9517
ssI01
(dp2210
g6
F0.0
sg7
F0.6059
sg8
F0.3941
sssI14
(dp2211
I00
(dp2212
g6
F0.0
sg7
F0.0085
sg8
F0.9915
ssI01
(dp2213
g6
F0.0
sg7
F1.0
sg8
F0.0
ssssI5
(dp2214
I2
(dp2215
I00
(dp2216
g6
F0.8626
sg7
F0.0
sg8
F0.1374
ssI01
(dp2217
g6
F0.0
sg7
F0.0
sg8
F1.0
sssI3
(dp2218
I00
(dp2219
g6
F0.0
sg7
F0.0
sg8
F1.0
ssI01
(dp2220
g6
F0.0
sg7
F0.6792
sg8
F0.3208
sssI4
(dp2221
I00
(dp2222
g6
F0.0
sg7
F0.0398
sg8
F0.9602
ssI01
(dp2223
g6
F0.0
sg7
F1.0
sg8
F0.0
sssI5
(dp2224
I00
(dp2225
g6
F0.0
sg7
F1.0
sg8
F0.0
ssI01
(dp2226
ssI6
(dp2227
I00
(dp2228
g6
F0.0
sg7
F0.097
sg8
F0.903
ssI01
(dp2229
g6
F0.0
sg7
F1.0
sg8
F0.0
sssI7
(dp2230
I00
(dp2231
g6
F0.0
sg7
F0.0
sg8
F1.0
ssI01
(dp2232
g6
F0.0
sg7
F0.8702
sg8
F0.1298
sssI8
(dp2233
I00
(dp2234
g6
F0.0
sg7
F0.0
sg8
F1.0
ssI01
(dp2235
g6
F0.0
sg7
F0.6308
sg8
F0.3692
sssI9
(dp2236
I00
(dp2237
g6
F0.0
sg7
F0.0
sg8
F1.0
ssI01
(dp2238
g6
F0.0
sg7
F0.617
sg8
F0.383
sssI10
(dp2239
I00
(dp2240
g6
F0.0
sg7
F0.0
sg8
F1.0
ssI01
(dp2241
g6
F0.0
sg7
F0.2724
sg8
F0.7276
sssI11
(dp2242
I00
(dp2243
g6
F0.0
sg7
F0.0311
sg8
F0.9689
ssI01
(dp2244
g6
F0.0
sg7
F0.648
sg8
F0.352
sssI12
(dp2245
I00
(dp2246
g6
F0.0
sg7
F0.1528
sg8
F0.8472
ssI01
(dp2247
g6
F0.0
sg7
F0.6124
sg8
F0.3876
sssI13
(dp2248
I00
(dp2249
g6
F0.0
sg7
F0.1458
sg8
F0.8542
ssI01
(dp2250
g6
F0.0
sg7
F0.8478
sg8
F0.1522
sssI14
(dp2251
I00
(dp2252
g6
F0.0
sg7
F0.2718
sg8
F0.7282
ssI01
(dp2253
g6
F0.0
sg7
F1.0
sg8
F0.0
ssssI6
(dp2254
I2
(dp2255
I00
(dp2256
g6
F1.0
sg7
F0.0
sg8
F0.0
ssI01
(dp2257
g6
F0.0
sg7
F0.0
sg8
F1.0
sssI3
(dp2258
I00
(dp2259
g6
F0.0
sg7
F0.0
sg8
F1.0
ssI01
(dp2260
g6
F0.0
sg7
F0.2118
sg8
F0.7882
sssI4
(dp2261
I00
(dp2262
g6
F0.0
sg7
F0.0
sg8
F1.0
ssI01
(dp2263
g6
F0.0
sg7
F0.8642
sg8
F0.1358
sssI5
(dp2264
I00
(dp2265
g6
F0.0
sg7
F0.097
sg8
F0.903
ssI01
(dp2266
g6
F0.0
sg7
F1.0
sg8
F0.0
sssI6
(dp2267
I00
(dp2268
g6
F0.0
sg7
F1.0
sg8
F0.0
ssI01
(dp2269
ssI7
(dp2270
I00
(dp2271
g6
F0.0
sg7
F0.1695
sg8
F0.8305
ssI01
(dp2272
g6
F0.0
sg7
F0.9906
sg8
F0.0094
sssI8
(dp2273
I00
(dp2274
g6
F0.0
sg7
F0.0174
sg8
F0.9826
ssI01
(dp2275
g6
F0.0
sg7
F0.8871
sg8
F0.1129
sssI9
(dp2276
I00
(dp2277
g6
F0.0
sg7
F0.0302
sg8
F0.9698
ssI01
(dp2278
g6
F0.0
sg7
F0.8185
sg8
F0.1815
sssI10
(dp2279
I00
(dp2280
g6
F0.0
sg7
F0.0207
sg8
F0.9793
ssI01
(dp2281
g6
F0.0
sg7
F0.7456
sg8
F0.2544
sssI11
(dp2282
I00
(dp2283
g6
F0.0
sg7
F0.0188
sg8
F0.9812
ssI01
(dp2284
g6
F0.0
sg7
F0.4246
sg8
F0.5754
sssI12
(dp2285
I00
(dp2286
g6
F0.0
sg7
F0.2267
sg8
F0.7733
ssI01
(dp2287
g6
F0.0
sg7
F0.6448
sg8
F0.3552
sssI13
(dp2288
I00
(dp2289
g6
F0.0
sg7
F0.2425
sg8
F0.7575
ssI01
(dp2290
g6
F0.0
sg7
F0.9965
sg8
F0.0035
sssI14
(dp2291
I00
(dp2292
g6
F0.0
sg7
F0.2025
sg8
F0.7975
ssI01
(dp2293
g6
F0.0
sg7
F1.0
sg8
F0.0
ssssI7
(dp2294
I2
(dp2295
I00
(dp2296
g6
F1.0
sg7
F0.0
sg8
F0.0
ssI01
(dp2297
g6
F0.0
sg7
F0.0
sg8
F1.0
sssI3
(dp2298
I00
(dp2299
g6
F0.7351
sg7
F0.0
sg8
F0.2649
ssI01
(dp2300
g6
F0.0
sg7
F0.0
sg8
F1.0
sssI4
(dp2301
I00
(dp2302
g6
F0.0
sg7
F0.0
sg8
F1.0
ssI01
(dp2303
g6
F0.0
sg7
F0.421
sg8
F0.579
sssI5
(dp2304
I00
(dp2305
g6
F0.0
sg7
F0.0
sg8
F1.0
ssI01
(dp2306
g6
F0.0
sg7
F0.8702
sg8
F0.1298
sssI6
(dp2307
I00
(dp2308
g6
F0.0
sg7
F0.1695
sg8
F0.8305
ssI01
(dp2309
g6
F0.0
sg7
F0.9906
sg8
F0.0094
sssI7
(dp2310
I00
(dp2311
g6
F0.0
sg7
F1.0
sg8
F0.0
ssI01
(dp2312
ssI8
(dp2313
I00
(dp2314
g6
F0.0
sg7
F0.1986
sg8
F0.8014
ssI01
(dp2315
g6
F0.0
sg7
F0.9376
sg8
F0.0624
sssI9
(dp2316
I00
(dp2317
g6
F0.0
sg7
F0.1384
sg8
F0.8616
ssI01
(dp2318
g6
F0.0
sg7
F0.8337
sg8
F0.1663
sssI10
(dp2319
I00
(dp2320
g6
F0.0
sg7
F0.1526
sg8
F0.8474
ssI01
(dp2321
g6
F0.0
sg7
F0.7828
sg8
F0.2172
sssI11
(dp2322
I00
(dp2323
g6
F0.0
sg7
F0.1803
sg8
F0.8197
ssI01
(dp2324
g6
F0.0
sg7
F0.6054
sg8
F0.3946
sssI12
(dp2325
I00
(dp2326
g6
F0.0
sg7
F0.1339
sg8
F0.8661
ssI01
(dp2327
g6
F0.0
sg7
F0.6352
sg8
F0.3648
sssI13
(dp2328
I00
(dp2329
g6
F0.0
sg7
F0.2411
sg8
F0.7589
ssI01
(dp2330
g6
F0.0
sg7
F1.0
sg8
F0.0
sssI14
(dp2331
I00
(dp2332
g6
F0.0
sg7
F0.4241
sg8
F0.5759
ssI01
(dp2333
g6
F0.0
sg7
F1.0
sg8
F0.0
ssssI8
(dp2334
I2
(dp2335
I00
(dp2336
g6
F1.0
sg7
F0.0
sg8
F0.0
ssI01
(dp2337
g6
F0.0
sg7
F0.0
sg8
F1.0
sssI3
(dp2338
I00
(dp2339
g6
F1.0
sg7
F0.0
sg8
F0.0
ssI01
(dp2340
g6
F0.0
sg7
F0.0
sg8
F1.0
sssI4
(dp2341
I00
(dp2342
g6
F0.0
sg7
F0.0
sg8
F1.0
ssI01
(dp2343
g6
F0.0
sg7
F0.136
sg8
F0.864
sssI5
(dp2344
I00
(dp2345
g6
F0.0
sg7
F0.0
sg8
F1.0
ssI01
(dp2346
g6
F0.0
sg7
F0.6308
sg8
F0.3692
sssI6
(dp2347
I00
(dp2348
g6
F0.0
sg7
F0.0174
sg8
F0.9826
ssI01
(dp2349
g6
F0.0
sg7
F0.8871
sg8
F0.1129
sssI7
(dp2350
I00
(dp2351
g6
F0.0
sg7
F0.1986
sg8
F0.8014
ssI01
(dp2352
g6
F0.0
sg7
F0.9376
sg8
F0.0624
sssI8
(dp2353
I00
(dp2354
g6
F0.0
sg7
F1.0
sg8
F0.0
ssI01
(dp2355
ssI9
(dp2356
I00
(dp2357
g6
F0.0
sg7
F0.3252
sg8
F0.6748
ssI01
(dp2358
g6
F0.0
sg7
F0.9226
sg8
F0.0774
sssI10
(dp2359
I00
(dp2360
g6
F0.0
sg7
F0.2435
sg8
F0.7565
ssI01
(dp2361
g6
F0.0
sg7
F0.8483
sg8
F0.1517
sssI11
(dp2362
I00
(dp2363
g6
F0.0
sg7
F0.224
sg8
F0.776
ssI01
(dp2364
g6
F0.0
sg7
F0.7924
sg8
F0.2076
sssI12
(dp2365
I00
(dp2366
g6
F0.0
sg7
F0.1531
sg8
F0.8469
ssI01
(dp2367
g6
F0.0
sg7
F0.9291
sg8
F0.0709
sssI13
(dp2368
I00
(dp2369
g6
F0.0
sg7
F0.1841
sg8
F0.8159
ssI01
(dp2370
g6
F0.0
sg7
F1.0
sg8
F0.0
sssI14
(dp2371
I00
(dp2372
g6
F0.0
sg7
F0.5752
sg8
F0.4248
ssI01
(dp2373
g6
F0.0
sg7
F1.0
sg8
F0.0
ssssI9
(dp2374
I2
(dp2375
I00
(dp2376
g6
F0.3121
sg7
F0.0
sg8
F0.6879
ssI01
(dp2377
g6
F0.0
sg7
F0.0
sg8
F1.0
sssI3
(dp2378
I00
(dp2379
g6
F0.0
sg7
F0.0
sg8
F1.0
ssI01
(dp2380
g6
F0.0
sg7
F0.0305
sg8
F0.9695
sssI4
(dp2381
I00
(dp2382
g6
F0.0
sg7
F0.0
sg8
F1.0
ssI01
(dp2383
g6
F0.0
sg7
F0.0154
sg8
F0.9846
sssI5
(dp2384
I00
(dp2385
g6
F0.0
sg7
F0.0
sg8
F1.0
ssI01
(dp2386
g6
F0.0
sg7
F0.617
sg8
F0.383
sssI6
(dp2387
I00
(dp2388
g6
F0.0
sg7
F0.0302
sg8
F0.9698
ssI01
(dp2389
g6
F0.0
sg7
F0.8185
sg8
F0.1815
sssI7
(dp2390
I00
(dp2391
g6
F0.0
sg7
F0.1384
sg8
F0.8616
ssI01
(dp2392
g6
F0.0
sg7
F0.8337
sg8
F0.1663
sssI8
(dp2393
I00
(dp2394
g6
F0.0
sg7
F0.3252
sg8
F0.6748
ssI01
(dp2395
g6
F0.0
sg7
F0.9226
sg8
F0.0774
sssI9
(dp2396
I00
(dp2397
g6
F0.0
sg7
F1.0
sg8
F0.0
ssI01
(dp2398
ssI10
(dp2399
I00
(dp2400
g6
F0.0
sg7
F0.3925
sg8
F0.6075
ssI01
(dp2401
g6
F0.0
sg7
F0.9663
sg8
F0.0337
sssI11
(dp2402
I00
(dp2403
g6
F0.0
sg7
F0.2732
sg8
F0.7268
ssI01
(dp2404
g6
F0.0
sg7
F0.9613
sg8
F0.0387
sssI12
(dp2405
I00
(dp2406
g6
F0.0
sg7
F0.2331
sg8
F0.7669
ssI01
(dp2407
g6
F0.0
sg7
F1.0
sg8
F0.0
sssI13
(dp2408
I00
(dp2409
g6
F0.0
sg7
F0.3825
sg8
F0.6175
ssI01
(dp2410
g6
F0.0
sg7
F1.0
sg8
F0.0
sssI14
(dp2411
I00
(dp2412
g6
F0.0
sg7
F0.7754
sg8
F0.2246
ssI01
(dp2413
g6
F0.0
sg7
F1.0
sg8
F0.0
ssssI10
(dp2414
I2
(dp2415
I00
(dp2416
g6
F0.0
sg7
F0.0
sg8
F1.0
ssI01
(dp2417
g6
F0.0
sg7
F0.0083
sg8
F0.9917
sssI3
(dp2418
I00
(dp2419
g6
F0.0
sg7
F0.0
sg8
F1.0
ssI01
(dp2420
g6
F0.0
sg7
F0.1558
sg8
F0.8442
sssI4
(dp2421
I00
(dp2422
g6
F0.0
sg7
F0.0
sg8
F1.0
ssI01
(dp2423
g6
F0.0
sg7
F0.4091
sg8
F0.5909
sssI5
(dp2424
I00
(dp2425
g6
F0.0
sg7
F0.0
sg8
F1.0
ssI01
(dp2426
g6
F0.0
sg7
F0.2724
sg8
F0.7276
sssI6
(dp2427
I00
(dp2428
g6
F0.0
sg7
F0.0207
sg8
F0.9793
ssI01
(dp2429
g6
F0.0
sg7
F0.7456
sg8
F0.2544
sssI7
(dp2430
I00
(dp2431
g6
F0.0
sg7
F0.1526
sg8
F0.8474
ssI01
(dp2432
g6
F0.0
sg7
F0.7828
sg8
F0.2172
sssI8
(dp2433
I00
(dp2434
g6
F0.0
sg7
F0.2435
sg8
F0.7565
ssI01
(dp2435
g6
F0.0
sg7
F0.8483
sg8
F0.1517
sssI9
(dp2436
I00
(dp2437
g6
F0.0
sg7
F0.3925
sg8
F0.6075
ssI01
(dp2438
g6
F0.0
sg7
F0.9663
sg8
F0.0337
sssI10
(dp2439
I00
(dp2440
g6
F0.0
sg7
F1.0
sg8
F0.0
ssI01
(dp2441
ssI11
(dp2442
I00
(dp2443
g6
F0.0
sg7
F0.3666
sg8
F0.6334
ssI01
(dp2444
g6
F0.0
sg7
F1.0
sg8
F0.0
sssI12
(dp2445
I00
(dp2446
g6
F0.0
sg7
F0.3129
sg8
F0.6871
ssI01
(dp2447
g6
F0.0
sg7
F1.0
sg8
F0.0
sssI13
(dp2448
I00
(dp2449
g6
F0.0
sg7
F0.4951
sg8
F0.5049
ssI01
(dp2450
g6
F0.0
sg7
F1.0
sg8
F0.0
sssI14
(dp2451
I00
(dp2452
g6
F0.0
sg7
F0.9255
sg8
F0.0745
ssI01
(dp2453
g6
F0.0
sg7
F1.0
sg8
F0.0
ssssI11
(dp2454
I2
(dp2455
I00
(dp2456
g6
F0.0
sg7
F0.0
sg8
F1.0
ssI01
(dp2457
g6
F0.0
sg7
F0.0226
sg8
F0.9774
sssI3
(dp2458
I00
(dp2459
g6
F0.0
sg7
F0.0
sg8
F1.0
ssI01
(dp2460
g6
F0.0
sg7
F0.2376
sg8
F0.7624
sssI4
(dp2461
I00
(dp2462
g6
F0.0
sg7
F0.0
sg8
F1.0
ssI01
(dp2463
g6
F0.0
sg7
F0.53
sg8
F0.47
sssI5
(dp2464
I00
(dp2465
g6
F0.0
sg7
F0.0311
sg8
F0.9689
ssI01
(dp2466
g6
F0.0
sg7
F0.648
sg8
F0.352
sssI6
(dp2467
I00
(dp2468
g6
F0.0
sg7
F0.0188
sg8
F0.9812
ssI01
(dp2469
g6
F0.0
sg7
F0.4246
sg8
F0.5754
sssI7
(dp2470
I00
(dp2471
g6
F0.0
sg7
F0.1803
sg8
F0.8197
ssI01
(dp2472
g6
F0.0
sg7
F0.6054
sg8
F0.3946
sssI8
(dp2473
I00
(dp2474
g6
F0.0
sg7
F0.224
sg8
F0.776
ssI01
(dp2475
g6
F0.0
sg7
F0.7924
sg8
F0.2076
sssI9
(dp2476
I00
(dp2477
g6
F0.0
sg7
F0.2732
sg8
F0.7268
ssI01
(dp2478
g6
F0.0
sg7
F0.9613
sg8
F0.0387
sssI10
(dp2479
I00
(dp2480
g6
F0.0
sg7
F0.3666
sg8
F0.6334
ssI01
(dp2481
g6
F0.0
sg7
F1.0
sg8
F0.0
sssI11
(dp2482
I00
(dp2483
g6
F0.0
sg7
F1.0
sg8
F0.0
ssI01
(dp2484
ssI12
(dp2485
I00
(dp2486
g6
F0.0
sg7
F0.4214
sg8
F0.5786
ssI01
(dp2487
g6
F0.0
sg7
F1.0
sg8
F0.0
sssI13
(dp2488
I00
(dp2489
g6
F0.0
sg7
F0.6151
sg8
F0.3849
ssI01
(dp2490
g6
F0.0
sg7
F1.0
sg8
F0.0
sssI14
(dp2491
I00
(dp2492
g6
F0.0
sg7
F0.9881
sg8
F0.0119
ssI01
(dp2493
g6
F0.0
sg7
F1.0
sg8
F0.0
ssssI12
(dp2494
I2
(dp2495
I00
(dp2496
g6
F0.0
sg7
F0.0
sg8
F1.0
ssI01
(dp2497
g6
F0.0
sg7
F0.0057
sg8
F0.9943
sssI3
(dp2498
I00
(dp2499
g6
F0.0
sg7
F0.0
sg8
F1.0
ssI01
(dp2500
g6
F0.0
sg7
F0.2292
sg8
F0.7708
sssI4
(dp2501
I00
(dp2502
g6
F0.0
sg7
F0.0132
sg8
F0.9868
ssI01
(dp2503
g6
F0.0
sg7
F0.5943
sg8
F0.4057
sssI5
(dp2504
I00
(dp2505
g6
F0.0
sg7
F0.1528
sg8
F0.8472
ssI01
(dp2506
g6
F0.0
sg7
F0.6124
sg8
F0.3876
sssI6
(dp2507
I00
(dp2508
g6
F0.0
sg7
F0.2267
sg8
F0.7733
ssI01
(dp2509
g6
F0.0
sg7
F0.6448
sg8
F0.3552
sssI7
(dp2510
I00
(dp2511
g6
F0.0
sg7
F0.1339
sg8
F0.8661
ssI01
(dp2512
g6
F0.0
sg7
F0.6352
sg8
F0.3648
sssI8
(dp2513
I00
(dp2514
g6
F0.0
sg7
F0.1531
sg8
F0.8469
ssI01
(dp2515
g6
F0.0
sg7
F0.9291
sg8
F0.0709
sssI9
(dp2516
I00
(dp2517
g6
F0.0
sg7
F0.2331
sg8
F0.7669
ssI01
(dp2518
g6
F0.0
sg7
F1.0
sg8
F0.0
sssI10
(dp2519
I00
(dp2520
g6
F0.0
sg7
F0.3129
sg8
F0.6871
ssI01
(dp2521
g6
F0.0
sg7
F1.0
sg8
F0.0
sssI11
(dp2522
I00
(dp2523
g6
F0.0
sg7
F0.4214
sg8
F0.5786
ssI01
(dp2524
g6
F0.0
sg7
F1.0
sg8
F0.0
sssI12
(dp2525
I00
(dp2526
g6
F0.0
sg7
F1.0
sg8
F0.0
ssI01
(dp2527
ssI13
(dp2528
I00
(dp2529
g6
F0.0
sg7
F0.7642
sg8
F0.2358
ssI01
(dp2530
g6
F0.0
sg7
F1.0
sg8
F0.0
sssI14
(dp2531
I00
(dp2532
g6
F0.0
sg7
F1.0
sg8
F0.0
ssI01
(dp2533
g6
F0.0
sg7
F1.0
sg8
F0.0
ssssI13
(dp2534
I2
(dp2535
I00
(dp2536
g6
F0.0
sg7
F0.0
sg8
F1.0
ssI01
(dp2537
g6
F0.0
sg7
F0.0
sg8
F1.0
sssI3
(dp2538
I00
(dp2539
g6
F0.0
sg7
F0.0
sg8
F1.0
ssI01
(dp2540
g6
F0.0
sg7
F0.1586
sg8
F0.8414
sssI4
(dp2541
I00
(dp2542
g6
F0.0
sg7
F0.0483
sg8
F0.9517
ssI01
(dp2543
g6
F0.0
sg7
F0.6059
sg8
F0.3941
sssI5
(dp2544
I00
(dp2545
g6
F0.0
sg7
F0.1458
sg8
F0.8542
ssI01
(dp2546
g6
F0.0
sg7
F0.8478
sg8
F0.1522
sssI6
(dp2547
I00
(dp2548
g6
F0.0
sg7
F0.2425
sg8
F0.7575
ssI01
(dp2549
g6
F0.0
sg7
F0.9965
sg8
F0.0035
sssI7
(dp2550
I00
(dp2551
g6
F0.0
sg7
F0.2411
sg8
F0.7589
ssI01
(dp2552
g6
F0.0
sg7
F1.0
sg8
F0.0
sssI8
(dp2553
I00
(dp2554
g6
F0.0
sg7
F0.1841
sg8
F0.8159
ssI01
(dp2555
g6
F0.0
sg7
F1.0
sg8
F0.0
sssI9
(dp2556
I00
(dp2557
g6
F0.0
sg7
F0.3825
sg8
F0.6175
ssI01
(dp2558
g6
F0.0
sg7
F1.0
sg8
F0.0
sssI10
(dp2559
I00
(dp2560
g6
F0.0
sg7
F0.4951
sg8
F0.5049
ssI01
(dp2561
g6
F0.0
sg7
F1.0
sg8
F0.0
sssI11
(dp2562
I00
(dp2563
g6
F0.0
sg7
F0.6151
sg8
F0.3849
ssI01
(dp2564
g6
F0.0
sg7
F1.0
sg8
F0.0
sssI12
(dp2565
I00
(dp2566
g6
F0.0
sg7
F0.7642
sg8
F0.2358
ssI01
(dp2567
g6
F0.0
sg7
F1.0
sg8
F0.0
sssI13
(dp2568
I00
(dp2569
g6
F0.0
sg7
F1.0
sg8
F0.0
ssI01
(dp2570
ssI14
(dp2571
I00
(dp2572
g6
F0.0
sg7
F0.9995
sg8
F0.0005
ssI01
(dp2573
g6
F0.0
sg7
F1.0
sg8
F0.0
ssssI14
(dp2574
I2
(dp2575
I00
(dp2576
g6
F0.0
sg7
F0.0
sg8
F1.0
ssI01
(dp2577
g6
F0.0
sg7
F0.0019
sg8
F0.9981
sssI3
(dp2578
I00
(dp2579
g6
F0.0
sg7
F0.0
sg8
F1.0
ssI01
(dp2580
g6
F0.0
sg7
F0.3758
sg8
F0.6242
sssI4
(dp2581
I00
(dp2582
g6
F0.0
sg7
F0.0085
sg8
F0.9915
ssI01
(dp2583
g6
F0.0
sg7
F1.0
sg8
F0.0
sssI5
(dp2584
I00
(dp2585
g6
F0.0
sg7
F0.2718
sg8
F0.7282
ssI01
(dp2586
g6
F0.0
sg7
F1.0
sg8
F0.0
sssI6
(dp2587
I00
(dp2588
g6
F0.0
sg7
F0.2025
sg8
F0.7975
ssI01
(dp2589
g6
F0.0
sg7
F1.0
sg8
F0.0
sssI7
(dp2590
I00
(dp2591
g6
F0.0
sg7
F0.4241
sg8
F0.5759
ssI01
(dp2592
g6
F0.0
sg7
F1.0
sg8
F0.0
sssI8
(dp2593
I00
(dp2594
g6
F0.0
sg7
F0.5752
sg8
F0.4248
ssI01
(dp2595
g6
F0.0
sg7
F1.0
sg8
F0.0
sssI9
(dp2596
I00
(dp2597
g6
F0.0
sg7
F0.7754
sg8
F0.2246
ssI01
(dp2598
g6
F0.0
sg7
F1.0
sg8
F0.0
sssI10
(dp2599
I00
(dp2600
g6
F0.0
sg7
F0.9255
sg8
F0.0745
ssI01
(dp2601
g6
F0.0
sg7
F1.0
sg8
F0.0
sssI11
(dp2602
I00
(dp2603
g6
F0.0
sg7
F0.9881
sg8
F0.0119
ssI01
(dp2604
g6
F0.0
sg7
F1.0
sg8
F0.0
sssI12
(dp2605
I00
(dp2606
g6
F0.0
sg7
F1.0
sg8
F0.0
ssI01
(dp2607
g6
F0.0
sg7
F1.0
sg8
F0.0
sssI13
(dp2608
I00
(dp2609
g6
F0.0
sg7
F0.9995
sg8
F0.0005
ssI01
(dp2610
g6
F0.0
sg7
F1.0
sg8
F0.0
sssI14
(dp2611
I00
(dp2612
g6
F0.0
sg7
F1.0
sg8
F0.0
ssI01
(dp2613
ssssS'cr'
p2614
(dp2615
I2
(dp2616
I2
(dp2617
I00
(dp2618
g6
F0.0
sg7
F0.13
sg8
F0.87
ssI01
(dp2619
ssI3
(dp2620
I00
(dp2621
g6
F1.0
sg7
F0.0
sg8
F0.0
ssI01
(dp2622
g6
F0.0
sg7
F0.0
sg8
F1.0
sssI4
(dp2623
I00
(dp2624
g6
F1.0
sg7
F0.0
sg8
F0.0
ssI01
(dp2625
g6
F0.0
sg7
F0.0
sg8
F1.0
sssI5
(dp2626
I00
(dp2627
g6
F0.0
sg7
F0.0
sg8
F1.0
ssI01
(dp2628
g6
F0.0
sg7
F0.0
sg8
F1.0
sssI6
(dp2629
I00
(dp2630
g6
F1.0
sg7
F0.0
sg8
F0.0
ssI01
(dp2631
g6
F0.0
sg7
F0.0
sg8
F1.0
sssI7
(dp2632
I00
(dp2633
g6
F1.0
sg7
F0.0
sg8
F0.0
ssI01
(dp2634
g6
F0.0
sg7
F0.0
sg8
F1.0
sssI8
(dp2635
I00
(dp2636
g6
F1.0
sg7
F0.0
sg8
F0.0
ssI01
(dp2637
g6
F0.0
sg7
F0.0
sg8
F1.0
sssI9
(dp2638
I00
(dp2639
g6
F0.0
sg7
F0.0
sg8
F1.0
ssI01
(dp2640
g6
F0.0
sg7
F0.0844
sg8
F0.9156
sssI10
(dp2641
I00
(dp2642
g6
F0.0
sg7
F0.0
sg8
F1.0
ssI01
(dp2643
g6
F0.0
sg7
F0.0981
sg8
F0.9019
sssI11
(dp2644
I00
(dp2645
g6
F0.0
sg7
F0.0
sg8
F1.0
ssI01
(dp2646
g6
F0.0
sg7
F0.0
sg8
F1.0
sssI12
(dp2647
I00
(dp2648
g6
F0.0
sg7
F0.0
sg8
F1.0
ssI01
(dp2649
g6
F0.0
sg7
F1.0
sg8
F0.0
sssI13
(dp2650
I00
(dp2651
g6
F0.0
sg7
F0.0
sg8
F1.0
ssI01
(dp2652
g6
F0.0
sg7
F1.0
sg8
F0.0
sssI14
(dp2653
I00
(dp2654
g6
F0.0
sg7
F0.0
sg8
F1.0
ssI01
(dp2655
g6
F0.0
sg7
F1.0
sg8
F0.0
ssssI3
(dp2656
I2
(dp2657
I00
(dp2658
g6
F1.0
sg7
F0.0
sg8
F0.0
ssI01
(dp2659
g6
F0.0
sg7
F0.0
sg8
F1.0
sssI3
(dp2660
I00
(dp2661
g6
F0.0
sg7
F0.6089
sg8
F0.3911
ssI01
(dp2662
ssI4
(dp2663
I00
(dp2664
g6
F0.0
sg7
F0.0
sg8
F1.0
ssI01
(dp2665
g6
F0.0
sg7
F0.0
sg8
F1.0
sssI5
(dp2666
I00
(dp2667
g6
F0.0
sg7
F0.0
sg8
F1.0
ssI01
(dp2668
g6
F0.0
sg7
F1.0
sg8
F0.0
sssI6
(dp2669
I00
(dp2670
g6
F0.0
sg7
F0.0
sg8
F1.0
ssI01
(dp2671
g6
F0.0
sg7
F0.0
sg8
F1.0
sssI7
(dp2672
I00
(dp2673
g6
F0.0
sg7
F0.0
sg8
F1.0
ssI01
(dp2674
g6
F0.0
sg7
F0.0
sg8
F1.0
sssI8
(dp2675
I00
(dp2676
g6
F1.0
sg7
F0.0
sg8
F0.0
ssI01
(dp2677
g6
F0.0
sg7
F0.0
sg8
F1.0
sssI9
(dp2678
I00
(dp2679
g6
F0.0
sg7
F0.0
sg8
F1.0
ssI01
(dp2680
g6
F0.0
sg7
F0.1015
sg8
F0.8985
sssI10
(dp2681
I00
(dp2682
g6
F0.0
sg7
F0.0
sg8
F1.0
ssI01
(dp2683
g6
F0.0
sg7
F0.1179
sg8
F0.8821
sssI11
(dp2684
I00
(dp2685
g6
F0.0
sg7
F0.0
sg8
F1.0
ssI01
(dp2686
g6
F0.0
sg7
F1.0
sg8
F0.0
sssI12
(dp2687
I00
(dp2688
g6
F0.0
sg7
F0.0
sg8
F1.0
ssI01
(dp2689
g6
F0.0
sg7
F1.0
sg8
F0.0
sssI13
(dp2690
I00
(dp2691
g6
F0.0
sg7
F0.0
sg8
F1.0
ssI01
(dp2692
g6
F0.0
sg7
F1.0
sg8
F0.0
sssI14
(dp2693
I00
(dp2694
g6
F0.0
sg7
F0.0
sg8
F1.0
ssI01
(dp2695
g6
F0.0
sg7
F1.0
sg8
F0.0
ssssI4
(dp2696
I2
(dp2697
I00
(dp2698
g6
F1.0
sg7
F0.0
sg8
F0.0
ssI01
(dp2699
g6
F0.0
sg7
F0.0
sg8
F1.0
sssI3
(dp2700
I00
(dp2701
g6
F0.0
sg7
F0.0
sg8
F1.0
ssI01
(dp2702
g6
F0.0
sg7
F0.0
sg8
F1.0
sssI4
(dp2703
I00
(dp2704
g6
F0.0
sg7
F1.0
sg8
F0.0
ssI01
(dp2705
ssI5
(dp2706
I00
(dp2707
g6
F0.0
sg7
F0.0
sg8
F1.0
ssI01
(dp2708
g6
F0.0
sg7
F1.0
sg8
F0.0
sssI6
(dp2709
I00
(dp2710
g6
F0.0
sg7
F0.0
sg8
F1.0
ssI01
(dp2711
g6
F0.0
sg7
F1.0
sg8
F0.0
sssI7
(dp2712
I00
(dp2713
g6
F0.0
sg7
F0.0
sg8
F1.0
ssI01
(dp2714
g6
F0.0
sg7
F1.0
sg8
F0.0
sssI8
(dp2715
I00
(dp2716
g6
F0.0
sg7
F0.0
sg8
F1.0
ssI01
(dp2717
g6
F0.0
sg7
F0.0
sg8
F1.0
sssI9
(dp2718
I00
(dp2719
g6
F0.0
sg7
F0.0
sg8
F1.0
ssI01
(dp2720
g6
F0.0
sg7
F0.0
sg8
F1.0
sssI10
(dp2721
I00
(dp2722
g6
F0.0
sg7
F0.0
sg8
F1.0
ssI01
(dp2723
g6
F0.0
sg7
F1.0
sg8
F0.0
sssI11
(dp2724
I00
(dp2725
g6
F0.0
sg7
F0.0
sg8
F1.0
ssI01
(dp2726
g6
F0.0
sg7
F1.0
sg8
F0.0
sssI12
(dp2727
I00
(dp2728
g6
F0.0
sg7
F0.0
sg8
F1.0
ssI01
(dp2729
g6
F0.0
sg7
F1.0
sg8
F0.0
sssI13
(dp2730
I00
(dp2731
g6
F0.0
sg7
F0.0
sg8
F1.0
ssI01
(dp2732
g6
F0.0
sg7
F1.0
sg8
F0.0
sssI14
(dp2733
I00
(dp2734
g6
F0.0
sg7
F0.0
sg8
F1.0
ssI01
(dp2735
g6
F0.0
sg7
F1.0
sg8
F0.0
ssssI5
(dp2736
I2
(dp2737
I00
(dp2738
g6
F0.0
sg7
F0.0
sg8
F1.0
ssI01
(dp2739
g6
F0.0
sg7
F0.0
sg8
F1.0
sssI3
(dp2740
I00
(dp2741
g6
F0.0
sg7
F0.0
sg8
F1.0
ssI01
(dp2742
g6
F0.0
sg7
F1.0
sg8
F0.0
sssI4
(dp2743
I00
(dp2744
g6
F0.0
sg7
F0.0
sg8
F1.0
ssI01
(dp2745
g6
F0.0
sg7
F1.0
sg8
F0.0
sssI5
(dp2746
I00
(dp2747
g6
F0.0
sg7
F1.0
sg8
F0.0
ssI01
(dp2748
ssI6
(dp2749
I00
(dp2750
g6
F0.0
sg7
F0.0
sg8
F1.0
ssI01
(dp2751
g6
F0.0
sg7
F1.0
sg8
F0.0
sssI7
(dp2752
I00
(dp2753
g6
F0.0
sg7
F0.0
sg8
F1.0
ssI01
(dp2754
g6
F0.0
sg7
F1.0
sg8
F0.0
sssI8
(dp2755
I00
(dp2756
g6
F0.0
sg7
F0.0
sg8
F1.0
ssI01
(dp2757
g6
F0.0
sg7
F1.0
sg8
F0.0
sssI9
(dp2758
I00
(dp2759
g6
F0.0
sg7
F0.0
sg8
F1.0
ssI01
(dp2760
g6
F0.0
sg7
F1.0
sg8
F0.0
sssI10
(dp2761
I00
(dp2762
g6
F0.0
sg7
F0.0
sg8
F1.0
ssI01
(dp2763
g6
F0.0
sg7
F1.0
sg8
F0.0
sssI11
(dp2764
I00
(dp2765
g6
F0.0
sg7
F0.0
sg8
F1.0
ssI01
(dp2766
g6
F0.0
sg7
F1.0
sg8
F0.0
sssI12
(dp2767
I00
(dp2768
g6
F0.0
sg7
F0.2257
sg8
F0.7743
ssI01
(dp2769
g6
F0.0
sg7
F1.0
sg8
F0.0
sssI13
(dp2770
I00
(dp2771
g6
F0.0
sg7
F0.0
sg8
F1.0
ssI01
(dp2772
g6
F0.0
sg7
F1.0
sg8
F0.0
sssI14
(dp2773
I00
(dp2774
g6
F0.0
sg7
F0.0
sg8
F1.0
ssI01
(dp2775
g6
F0.0
sg7
F1.0
sg8
F0.0
ssssI6
(dp2776
I2
(dp2777
I00
(dp2778
g6
F1.0
sg7
F0.0
sg8
F0.0
ssI01
(dp2779
g6
F0.0
sg7
F0.0
sg8
F1.0
sssI3
(dp2780
I00
(dp2781
g6
F0.0
sg7
F0.0
sg8
F1.0
ssI01
(dp2782
g6
F0.0
sg7
F0.0
sg8
F1.0
sssI4
(dp2783
I00
(dp2784
g6
F0.0
sg7
F0.0
sg8
F1.0
ssI01
(dp2785
g6
F0.0
sg7
F1.0
sg8
F0.0
sssI5
(dp2786
I00
(dp2787
g6
F0.0
sg7
F0.0
sg8
F1.0
ssI01
(dp2788
g6
F0.0
sg7
F1.0
sg8
F0.0
sssI6
(dp2789
I00
(dp2790
g6
F0.0
sg7
F1.0
sg8
F0.0
ssI01
(dp2791
ssI7
(dp2792
I00
(dp2793
g6
F0.0
sg7
F0.0
sg8
F1.0
ssI01
(dp2794
g6
F0.0
sg7
F1.0
sg8
F0.0
sssI8
(dp2795
I00
(dp2796
g6
F0.0
sg7
F0.1282
sg8
F0.8718
ssI01
(dp2797
g6
F0.0
sg7
F1.0
sg8
F0.0
sssI9
(dp2798
I00
(dp2799
g6
F0.0
sg7
F0.0816
sg8
F0.9184
ssI01
(dp2800
g6
F0.0
sg7
F1.0
sg8
F0.0
sssI10
(dp2801
I00
(dp2802
g6
F0.0
sg7
F0.0608
sg8
F0.9392
ssI01
(dp2803
g6
F0.0
sg7
F1.0
sg8
F0.0
sssI11
(dp2804
I00
(dp2805
g6
F0.0
sg7
F0.0
sg8
F1.0
ssI01
(dp2806
g6
F0.0
sg7
F1.0
sg8
F0.0
sssI12
(dp2807
I00
(dp2808
g6
F0.0
sg7
F0.1312
sg8
F0.8688
ssI01
(dp2809
g6
F0.0
sg7
F1.0
sg8
F0.0
sssI13
(dp2810
I00
(dp2811
g6
F0.0
sg7
F0.0
sg8
F1.0
ssI01
(dp2812
g6
F0.0
sg7
F1.0
sg8
F0.0
sssI14
(dp2813
I00
(dp2814
g6
F0.0
sg7
F0.0
sg8
F1.0
ssI01
(dp2815
g6
F0.0
sg7
F1.0
sg8
F0.0
ssssI7
(dp2816
I2
(dp2817
I00
(dp2818
g6
F1.0
sg7
F0.0
sg8
F0.0
ssI01
(dp2819
g6
F0.0
sg7
F0.0
sg8
F1.0
sssI3
(dp2820
I00
(dp2821
g6
F0.0
sg7
F0.0
sg8
F1.0
ssI01
(dp2822
g6
F0.0
sg7
F0.0
sg8
F1.0
sssI4
(dp2823
I00
(dp2824
g6
F0.0
sg7
F0.0
sg8
F1.0
ssI01
(dp2825
g6
F0.0
sg7
F1.0
sg8
F0.0
sssI5
(dp2826
I00
(dp2827
g6
F0.0
sg7
F0.0
sg8
F1.0
ssI01
(dp2828
g6
F0.0
sg7
F1.0
sg8
F0.0
sssI6
(dp2829
I00
(dp2830
g6
F0.0
sg7
F0.0
sg8
F1.0
ssI01
(dp2831
g6
F0.0
sg7
F1.0
sg8
F0.0
sssI7
(dp2832
I00
(dp2833
g6
F0.0
sg7
F1.0
sg8
F0.0
ssI01
(dp2834
ssI8
(dp2835
I00
(dp2836
g6
F0.0
sg7
F0.0
sg8
F1.0
ssI01
(dp2837
g6
F0.0
sg7
F1.0
sg8
F0.0
sssI9
(dp2838
I00
(dp2839
g6
F0.0
sg7
F0.1832
sg8
F0.8168
ssI01
(dp2840
g6
F0.0
sg7
F1.0
sg8
F0.0
sssI10
(dp2841
I00
(dp2842
g6
F0.0
sg7
F0.2625
sg8
F0.7375
ssI01
(dp2843
g6
F0.0
sg7
F1.0
sg8
F0.0
sssI11
(dp2844
I00
(dp2845
g6
F0.0
sg7
F0.2871
sg8
F0.7129
ssI01
(dp2846
g6
F0.0
sg7
F1.0
sg8
F0.0
sssI12
(dp2847
I00
(dp2848
g6
F0.0
sg7
F0.276
sg8
F0.724
ssI01
(dp2849
g6
F0.0
sg7
F1.0
sg8
F0.0
sssI13
(dp2850
I00
(dp2851
g6
F0.0
sg7
F0.0
sg8
F1.0
ssI01
(dp2852
g6
F0.0
sg7
F1.0
sg8
F0.0
sssI14
(dp2853
I00
(dp2854
g6
F0.0
sg7
F0.0
sg8
F1.0
ssI01
(dp2855
g6
F0.0
sg7
F1.0
sg8
F0.0
ssssI8
(dp2856
I2
(dp2857
I00
(dp2858
g6
F1.0
sg7
F0.0
sg8
F0.0
ssI01
(dp2859
g6
F0.0
sg7
F0.0
sg8
F1.0
sssI3
(dp2860
I00
(dp2861
g6
F1.0
sg7
F0.0
sg8
F0.0
ssI01
(dp2862
g6
F0.0
sg7
F0.0
sg8
F1.0
sssI4
(dp2863
I00
(dp2864
g6
F0.0
sg7
F0.0
sg8
F1.0
ssI01
(dp2865
g6
F0.0
sg7
F0.0
sg8
F1.0
sssI5
(dp2866
I00
(dp2867
g6
F0.0
sg7
F0.0
sg8
F1.0
ssI01
(dp2868
g6
F0.0
sg7
F1.0
sg8
F0.0
sssI6
(dp2869
I00
(dp2870
g6
F0.0
sg7
F0.1282
sg8
F0.8718
ssI01
(dp2871
g6
F0.0
sg7
F1.0
sg8
F0.0
sssI7
(dp2872
I00
(dp2873
g6
F0.0
sg7
F0.0
sg8
F1.0
ssI01
(dp2874
g6
F0.0
sg7
F1.0
sg8
F0.0
sssI8
(dp2875
I00
(dp2876
g6
F0.0
sg7
F1.0
sg8
F0.0
ssI01
(dp2877
ssI9
(dp2878
I00
(dp2879
g6
F0.0
sg7
F0.1514
sg8
F0.8486
ssI01
(dp2880
g6
F0.0
sg7
F1.0
sg8
F0.0
sssI10
(dp2881
I00
(dp2882
g6
F0.0
sg7
F0.2949
sg8
F0.7051
ssI01
(dp2883
g6
F0.0
sg7
F1.0
sg8
F0.0
sssI11
(dp2884
I00
(dp2885
g6
F0.0
sg7
F0.2926
sg8
F0.7074
ssI01
(dp2886
g6
F0.0
sg7
F1.0
sg8
F0.0
sssI12
(dp2887
I00
(dp2888
g6
F0.0
sg7
F0.1492
sg8
F0.8508
ssI01
(dp2889
g6
F0.0
sg7
F1.0
sg8
F0.0
sssI13
(dp2890
I00
(dp2891
g6
F0.0
sg7
F0.0
sg8
F1.0
ssI01
(dp2892
g6
F0.0
sg7
F1.0
sg8
F0.0
sssI14
(dp2893
I00
(dp2894
g6
F0.0
sg7
F0.0
sg8
F1.0
ssI01
(dp2895
g6
F0.0
sg7
F1.0
sg8
F0.0
ssssI9
(dp2896
I2
(dp2897
I00
(dp2898
g6
F0.0
sg7
F0.0
sg8
F1.0
ssI01
(dp2899
g6
F0.0
sg7
F0.0844
sg8
F0.9156
sssI3
(dp2900
I00
(dp2901
g6
F0.0
sg7
F0.0
sg8
F1.0
ssI01
(dp2902
g6
F0.0
sg7
F0.1015
sg8
F0.8985
sssI4
(dp2903
I00
(dp2904
g6
F0.0
sg7
F0.0
sg8
F1.0
ssI01
(dp2905
g6
F0.0
sg7
F0.0
sg8
F1.0
sssI5
(dp2906
I00
(dp2907
g6
F0.0
sg7
F0.0
sg8
F1.0
ssI01
(dp2908
g6
F0.0
sg7
F1.0
sg8
F0.0
sssI6
(dp2909
I00
(dp2910
g6
F0.0
sg7
F0.0816
sg8
F0.9184
ssI01
(dp2911
g6
F0.0
sg7
F1.0
sg8
F0.0
sssI7
(dp2912
I00
(dp2913
g6
F0.0
sg7
F0.1832
sg8
F0.8168
ssI01
(dp2914
g6
F0.0
sg7
F1.0
sg8
F0.0
sssI8
(dp2915
I00
(dp2916
g6
F0.0
sg7
F0.1514
sg8
F0.8486
ssI01
(dp2917
g6
F0.0
sg7
F1.0
sg8
F0.0
sssI9
(dp2918
I00
(dp2919
g6
F0.0
sg7
F1.0
sg8
F0.0
ssI01
(dp2920
ssI10
(dp2921
I00
(dp2922
g6
F0.0
sg7
F0.0
sg8
F1.0
ssI01
(dp2923
g6
F0.0
sg7
F1.0
sg8
F0.0
sssI11
(dp2924
I00
(dp2925
g6
F0.0
sg7
F0.0832
sg8
F0.9168
ssI01
(dp2926
g6
F0.0
sg7
F1.0
sg8
F0.0
sssI12
(dp2927
I00
(dp2928
g6
F0.0
sg7
F0.0
sg8
F1.0
ssI01
(dp2929
g6
F0.0
sg7
F1.0
sg8
F0.0
sssI13
(dp2930
I00
(dp2931
g6
F0.0
sg7
F0.0
sg8
F1.0
ssI01
(dp2932
g6
F0.0
sg7
F1.0
sg8
F0.0
sssI14
(dp2933
I00
(dp2934
g6
F0.0
sg7
F0.0
sg8
F1.0
ssI01
(dp2935
g6
F0.0
sg7
F1.0
sg8
F0.0
ssssI10
(dp2936
I2
(dp2937
I00
(dp2938
g6
F0.0
sg7
F0.0
sg8
F1.0
ssI01
(dp2939
g6
F0.0
sg7
F0.0981
sg8
F0.9019
sssI3
(dp2940
I00
(dp2941
g6
F0.0
sg7
F0.0
sg8
F1.0
ssI01
(dp2942
g6
F0.0
sg7
F0.1179
sg8
F0.8821
sssI4
(dp2943
I00
(dp2944
g6
F0.0
sg7
F0.0
sg8
F1.0
ssI01
(dp2945
g6
F0.0
sg7
F1.0
sg8
F0.0
sssI5
(dp2946
I00
(dp2947
g6
F0.0
sg7
F0.0
sg8
F1.0
ssI01
(dp2948
g6
F0.0
sg7
F1.0
sg8
F0.0
sssI6
(dp2949
I00
(dp2950
g6
F0.0
sg7
F0.0608
sg8
F0.9392
ssI01
(dp2951
g6
F0.0
sg7
F1.0
sg8
F0.0
sssI7
(dp2952
I00
(dp2953
g6
F0.0
sg7
F0.2625
sg8
F0.7375
ssI01
(dp2954
g6
F0.0
sg7
F1.0
sg8
F0.0
sssI8
(dp2955
I00
(dp2956
g6
F0.0
sg7
F0.2949
sg8
F0.7051
ssI01
(dp2957
g6
F0.0
sg7
F1.0
sg8
F0.0
sssI9
(dp2958
I00
(dp2959
g6
F0.0
sg7
F0.0
sg8
F1.0
ssI01
(dp2960
g6
F0.0
sg7
F1.0
sg8
F0.0
sssI10
(dp2961
I00
(dp2962
g6
F0.0
sg7
F1.0
sg8
F0.0
ssI01
(dp2963
ssI11
(dp2964
I00
(dp2965
g6
F0.0
sg7
F0.0
sg8
F1.0
ssI01
(dp2966
g6
F0.0
sg7
F1.0
sg8
F0.0
sssI12
(dp2967
I00
(dp2968
g6
F0.0
sg7
F0.0
sg8
F1.0
ssI01
(dp2969
g6
F0.0
sg7
F1.0
sg8
F0.0
sssI13
(dp2970
I00
(dp2971
g6
F0.0
sg7
F0.0
sg8
F1.0
ssI01
(dp2972
g6
F0.0
sg7
F1.0
sg8
F0.0
sssI14
(dp2973
I00
(dp2974
g6
F0.0
sg7
F1.0
sg8
F0.0
ssI01
(dp2975
g6
F0.0
sg7
F1.0
sg8
F0.0
ssssI11
(dp2976
I2
(dp2977
I00
(dp2978
g6
F0.0
sg7
F0.0
sg8
F1.0
ssI01
(dp2979
g6
F0.0
sg7
F0.0
sg8
F1.0
sssI3
(dp2980
I00
(dp2981
g6
F0.0
sg7
F0.0
sg8
F1.0
ssI01
(dp2982
g6
F0.0
sg7
F1.0
sg8
F0.0
sssI4
(dp2983
I00
(dp2984
g6
F0.0
sg7
F0.0
sg8
F1.0
ssI01
(dp2985
g6
F0.0
sg7
F1.0
sg8
F0.0
sssI5
(dp2986
I00
(dp2987
g6
F0.0
sg7
F0.0
sg8
F1.0
ssI01
(dp2988
g6
F0.0
sg7
F1.0
sg8
F0.0
sssI6
(dp2989
I00
(dp2990
g6
F0.0
sg7
F0.0
sg8
F1.0
ssI01
(dp2991
g6
F0.0
sg7
F1.0
sg8
F0.0
sssI7
(dp2992
I00
(dp2993
g6
F0.0
sg7
F0.2871
sg8
F0.7129
ssI01
(dp2994
g6
F0.0
sg7
F1.0
sg8
F0.0
sssI8
(dp2995
I00
(dp2996
g6
F0.0
sg7
F0.2926
sg8
F0.7074
ssI01
(dp2997
g6
F0.0
sg7
F1.0
sg8
F0.0
sssI9
(dp2998
I00
(dp2999
g6
F0.0
sg7
F0.0832
sg8
F0.9168
ssI01
(dp3000
g6
F0.0
sg7
F1.0
sg8
F0.0
sssI10
(dp3001
I00
(dp3002
g6
F0.0
sg7
F0.0
sg8
F1.0
ssI01
(dp3003
g6
F0.0
sg7
F1.0
sg8
F0.0
sssI11
(dp3004
I00
(dp3005
g6
F0.0
sg7
F1.0
sg8
F0.0
ssI01
(dp3006
ssI12
(dp3007
I00
(dp3008
g6
F0.0
sg7
F0.0
sg8
F1.0
ssI01
(dp3009
g6
F0.0
sg7
F1.0
sg8
F0.0
sssI13
(dp3010
I00
(dp3011
g6
F0.0
sg7
F0.0
sg8
F1.0
ssI01
(dp3012
g6
F0.0
sg7
F1.0
sg8
F0.0
sssI14
(dp3013
I00
(dp3014
g6
F0.0
sg7
F1.0
sg8
F0.0
ssI01
(dp3015
g6
F0.0
sg7
F1.0
sg8
F0.0
ssssI12
(dp3016
I2
(dp3017
I00
(dp3018
g6
F0.0
sg7
F0.0
sg8
F1.0
ssI01
(dp3019
g6
F0.0
sg7
F1.0
sg8
F0.0
sssI3
(dp3020
I00
(dp3021
g6
F0.0
sg7
F0.0
sg8
F1.0
ssI01
(dp3022
g6
F0.0
sg7
F1.0
sg8
F0.0
sssI4
(dp3023
I00
(dp3024
g6
F0.0
sg7
F0.0
sg8
F1.0
ssI01
(dp3025
g6
F0.0
sg7
F1.0
sg8
F0.0
sssI5
(dp3026
I00
(dp3027
g6
F0.0
sg7
F0.2257
sg8
F0.7743
ssI01
(dp3028
g6
F0.0
sg7
F1.0
sg8
F0.0
sssI6
(dp3029
I00
(dp3030
g6
F0.0
sg7
F0.1312
sg8
F0.8688
ssI01
(dp3031
g6
F0.0
sg7
F1.0
sg8
F0.0
sssI7
(dp3032
I00
(dp3033
g6
F0.0
sg7
F0.276
sg8
F0.724
ssI01
(dp3034
g6
F0.0
sg7
F1.0
sg8
F0.0
sssI8
(dp3035
I00
(dp3036
g6
F0.0
sg7
F0.1492
sg8
F0.8508
ssI01
(dp3037
g6
F0.0
sg7
F1.0
sg8
F0.0
sssI9
(dp3038
I00
(dp3039
g6
F0.0
sg7
F0.0
sg8
F1.0
ssI01
(dp3040
g6
F0.0
sg7
F1.0
sg8
F0.0
sssI10
(dp3041
I00
(dp3042
g6
F0.0
sg7
F0.0
sg8
F1.0
ssI01
(dp3043
g6
F0.0
sg7
F1.0
sg8
F0.0
sssI11
(dp3044
I00
(dp3045
g6
F0.0
sg7
F0.0
sg8
F1.0
ssI01
(dp3046
g6
F0.0
sg7
F1.0
sg8
F0.0
sssI12
(dp3047
I00
(dp3048
g6
F0.0
sg7
F1.0
sg8
F0.0
ssI01
(dp3049
ssI13
(dp3050
I00
(dp3051
g6
F0.0
sg7
F0.0
sg8
F1.0
ssI01
(dp3052
g6
F0.0
sg7
F1.0
sg8
F0.0
sssI14
(dp3053
I00
(dp3054
g6
F0.0
sg7
F1.0
sg8
F0.0
ssI01
(dp3055
g6
F0.0
sg7
F1.0
sg8
F0.0
ssssI13
(dp3056
I2
(dp3057
I00
(dp3058
g6
F0.0
sg7
F0.0
sg8
F1.0
ssI01
(dp3059
g6
F0.0
sg7
F1.0
sg8
F0.0
sssI3
(dp3060
I00
(dp3061
g6
F0.0
sg7
F0.0
sg8
F1.0
ssI01
(dp3062
g6
F0.0
sg7
F1.0
sg8
F0.0
sssI4
(dp3063
I00
(dp3064
g6
F0.0
sg7
F0.0
sg8
F1.0
ssI01
(dp3065
g6
F0.0
sg7
F1.0
sg8
F0.0
sssI5
(dp3066
I00
(dp3067
g6
F0.0
sg7
F0.0
sg8
F1.0
ssI01
(dp3068
g6
F0.0
sg7
F1.0
sg8
F0.0
sssI6
(dp3069
I00
(dp3070
g6
F0.0
sg7
F0.0
sg8
F1.0
ssI01
(dp3071
g6
F0.0
sg7
F1.0
sg8
F0.0
sssI7
(dp3072
I00
(dp3073
g6
F0.0
sg7
F0.0
sg8
F1.0
ssI01
(dp3074
g6
F0.0
sg7
F1.0
sg8
F0.0
sssI8
(dp3075
I00
(dp3076
g6
F0.0
sg7
F0.0
sg8
F1.0
ssI01
(dp3077
g6
F0.0
sg7
F1.0
sg8
F0.0
sssI9
(dp3078
I00
(dp3079
g6
F0.0
sg7
F0.0
sg8
F1.0
ssI01
(dp3080
g6
F0.0
sg7
F1.0
sg8
F0.0
sssI10
(dp3081
I00
(dp3082
g6
F0.0
sg7
F0.0
sg8
F1.0
ssI01
(dp3083
g6
F0.0
sg7
F1.0
sg8
F0.0
sssI11
(dp3084
I00
(dp3085
g6
F0.0
sg7
F0.0
sg8
F1.0
ssI01
(dp3086
g6
F0.0
sg7
F1.0
sg8
F0.0
sssI12
(dp3087
I00
(dp3088
g6
F0.0
sg7
F0.0
sg8
F1.0
ssI01
(dp3089
g6
F0.0
sg7
F1.0
sg8
F0.0
sssI13
(dp3090
I00
(dp3091
g6
F0.0
sg7
F1.0
sg8
F0.0
ssI01
(dp3092
ssI14
(dp3093
I00
(dp3094
g6
F0.0
sg7
F1.0
sg8
F0.0
ssI01
(dp3095
g6
F0.0
sg7
F1.0
sg8
F0.0
ssssI14
(dp3096
I2
(dp3097
I00
(dp3098
g6
F0.0
sg7
F0.0
sg8
F1.0
ssI01
(dp3099
g6
F0.0
sg7
F1.0
sg8
F0.0
sssI3
(dp3100
I00
(dp3101
g6
F0.0
sg7
F0.0
sg8
F1.0
ssI01
(dp3102
g6
F0.0
sg7
F1.0
sg8
F0.0
sssI4
(dp3103
I00
(dp3104
g6
F0.0
sg7
F0.0
sg8
F1.0
ssI01
(dp3105
g6
F0.0
sg7
F1.0
sg8
F0.0
sssI5
(dp3106
I00
(dp3107
g6
F0.0
sg7
F0.0
sg8
F1.0
ssI01
(dp3108
g6
F0.0
sg7
F1.0
sg8
F0.0
sssI6
(dp3109
I00
(dp3110
g6
F0.0
sg7
F0.0
sg8
F1.0
ssI01
(dp3111
g6
F0.0
sg7
F1.0
sg8
F0.0
sssI7
(dp3112
I00
(dp3113
g6
F0.0
sg7
F0.0
sg8
F1.0
ssI01
(dp3114
g6
F0.0
sg7
F1.0
sg8
F0.0
sssI8
(dp3115
I00
(dp3116
g6
F0.0
sg7
F0.0
sg8
F1.0
ssI01
(dp3117
g6
F0.0
sg7
F1.0
sg8
F0.0
sssI9
(dp3118
I00
(dp3119
g6
F0.0
sg7
F0.0
sg8
F1.0
ssI01
(dp3120
g6
F0.0
sg7
F1.0
sg8
F0.0
sssI10
(dp3121
I00
(dp3122
g6
F0.0
sg7
F1.0
sg8
F0.0
ssI01
(dp3123
g6
F0.0
sg7
F1.0
sg8
F0.0
sssI11
(dp3124
I00
(dp3125
g6
F0.0
sg7
F1.0
sg8
F0.0
ssI01
(dp3126
g6
F0.0
sg7
F1.0
sg8
F0.0
sssI12
(dp3127
I00
(dp3128
g6
F0.0
sg7
F1.0
sg8
F0.0
ssI01
(dp3129
g6
F0.0
sg7
F1.0
sg8
F0.0
sssI13
(dp3130
I00
(dp3131
g6
F0.0
sg7
F1.0
sg8
F0.0
ssI01
(dp3132
g6
F0.0
sg7
F1.0
sg8
F0.0
sssI14
(dp3133
I00
(dp3134
g6
F0.0
sg7
F1.0
sg8
F0.0
ssI01
(dp3135
ssssS'rrr'
p3136
(dp3137
I2
(dp3138
I2
(dp3139
I00
(dp3140
g6
F0.0
sg7
F0.0
sg8
F1.0
ssI01
(dp3141
ssI3
(dp3142
I00
(dp3143
g6
F0.0
sg7
F0.0
sg8
F1.0
ssI01
(dp3144
g6
F0.0
sg7
F0.0
sg8
F1.0
sssI4
(dp3145
I00
(dp3146
g6
F0.0
sg7
F0.0
sg8
F1.0
ssI01
(dp3147
g6
F0.0
sg7
F0.0
sg8
F1.0
sssI5
(dp3148
I00
(dp3149
g6
F0.0
sg7
F0.0
sg8
F1.0
ssI01
(dp3150
g6
F0.0
sg7
F0.0
sg8
F1.0
sssI6
(dp3151
I00
(dp3152
g6
F0.0
sg7
F0.0
sg8
F1.0
ssI01
(dp3153
g6
F0.0
sg7
F0.0
sg8
F1.0
sssI7
(dp3154
I00
(dp3155
g6
F0.0
sg7
F0.0
sg8
F1.0
ssI01
(dp3156
g6
F0.0
sg7
F0.0
sg8
F1.0
sssI8
(dp3157
I00
(dp3158
g6
F0.0
sg7
F0.0
sg8
F1.0
ssI01
(dp3159
g6
F0.0
sg7
F0.0
sg8
F1.0
sssI9
(dp3160
I00
(dp3161
g6
F0.0
sg7
F0.0
sg8
F1.0
ssI01
(dp3162
g6
F0.0
sg7
F0.0
sg8
F1.0
sssI10
(dp3163
I00
(dp3164
g6
F0.0
sg7
F0.0
sg8
F1.0
ssI01
(dp3165
g6
F0.0
sg7
F0.0
sg8
F1.0
sssI11
(dp3166
I00
(dp3167
g6
F0.0
sg7
F0.0
sg8
F1.0
ssI01
(dp3168
g6
F0.0
sg7
F0.0
sg8
F1.0
sssI12
(dp3169
I00
(dp3170
g6
F0.0
sg7
F0.0
sg8
F1.0
ssI01
(dp3171
g6
F0.0
sg7
F0.0
sg8
F1.0
sssI13
(dp3172
I00
(dp3173
g6
F0.0
sg7
F0.0
sg8
F1.0
ssI01
(dp3174
g6
F0.0
sg7
F0.0
sg8
F1.0
sssI14
(dp3175
I00
(dp3176
g6
F0.0
sg7
F0.0
sg8
F1.0
ssI01
(dp3177
g6
F0.0
sg7
F0.0
sg8
F1.0
ssssI3
(dp3178
I2
(dp3179
I00
(dp3180
g6
F0.0
sg7
F0.0
sg8
F1.0
ssI01
(dp3181
g6
F0.0
sg7
F0.0
sg8
F1.0
sssI3
(dp3182
I00
(dp3183
g6
F0.0
sg7
F0.0
sg8
F1.0
ssI01
(dp3184
ssI4
(dp3185
I00
(dp3186
g6
F0.0
sg7
F0.0
sg8
F1.0
ssI01
(dp3187
g6
F0.0
sg7
F0.0
sg8
F1.0
sssI5
(dp3188
I00
(dp3189
g6
F0.0
sg7
F0.0
sg8
F1.0
ssI01
(dp3190
g6
F0.0
sg7
F0.0
sg8
F1.0
sssI6
(dp3191
I00
(dp3192
g6
F0.0
sg7
F0.0
sg8
F1.0
ssI01
(dp3193
g6
F0.0
sg7
F0.0
sg8
F1.0
sssI7
(dp3194
I00
(dp3195
g6
F0.0
sg7
F0.0
sg8
F1.0
ssI01
(dp3196
g6
F0.0
sg7
F0.0
sg8
F1.0
sssI8
(dp3197
I00
(dp3198
g6
F0.0
sg7
F0.0
sg8
F1.0
ssI01
(dp3199
g6
F0.0
sg7
F0.0
sg8
F1.0
sssI9
(dp3200
I00
(dp3201
g6
F0.0
sg7
F0.0
sg8
F1.0
ssI01
(dp3202
g6
F0.0
sg7
F0.0
sg8
F1.0
sssI10
(dp3203
I00
(dp3204
g6
F0.0
sg7
F0.0
sg8
F1.0
ssI01
(dp3205
g6
F0.0
sg7
F0.0
sg8
F1.0
sssI11
(dp3206
I00
(dp3207
g6
F0.0
sg7
F0.0
sg8
F1.0
ssI01
(dp3208
g6
F0.0
sg7
F0.0
sg8
F1.0
sssI12
(dp3209
I00
(dp3210
g6
F0.0
sg7
F0.0
sg8
F1.0
ssI01
(dp3211
g6
F0.0
sg7
F0.0
sg8
F1.0
sssI13
(dp3212
I00
(dp3213
g6
F0.0
sg7
F0.0
sg8
F1.0
ssI01
(dp3214
g6
F0.0
sg7
F0.0
sg8
F1.0
sssI14
(dp3215
I00
(dp3216
g6
F0.0
sg7
F0.0
sg8
F1.0
ssI01
(dp3217
g6
F0.0
sg7
F0.0
sg8
F1.0
ssssI4
(dp3218
I2
(dp3219
I00
(dp3220
g6
F0.0
sg7
F0.0
sg8
F1.0
ssI01
(dp3221
g6
F0.0
sg7
F0.0
sg8
F1.0
sssI3
(dp3222
I00
(dp3223
g6
F0.0
sg7
F0.0
sg8
F1.0
ssI01
(dp3224
g6
F0.0
sg7
F0.0
sg8
F1.0
sssI4
(dp3225
I00
(dp3226
g6
F0.0
sg7
F0.0
sg8
F1.0
ssI01
(dp3227
ssI5
(dp3228
I00
(dp3229
g6
F0.0
sg7
F0.0
sg8
F1.0
ssI01
(dp3230
g6
F0.0
sg7
F0.0
sg8
F1.0
sssI6
(dp3231
I00
(dp3232
g6
F0.0
sg7
F0.0
sg8
F1.0
ssI01
(dp3233
g6
F0.0
sg7
F0.0
sg8
F1.0
sssI7
(dp3234
I00
(dp3235
g6
F0.0
sg7
F0.0
sg8
F1.0
ssI01
(dp3236
g6
F0.0
sg7
F0.0
sg8
F1.0
sssI8
(dp3237
I00
(dp3238
g6
F0.0
sg7
F0.0
sg8
F1.0
ssI01
(dp3239
g6
F0.0
sg7
F0.0
sg8
F1.0
sssI9
(dp3240
I00
(dp3241
g6
F0.0
sg7
F0.0
sg8
F1.0
ssI01
(dp3242
g6
F0.0
sg7
F0.0
sg8
F1.0
sssI10
(dp3243
I00
(dp3244
g6
F0.0
sg7
F0.0
sg8
F1.0
ssI01
(dp3245
g6
F0.0
sg7
F0.0
sg8
F1.0
sssI11
(dp3246
I00
(dp3247
g6
F0.0
sg7
F0.0
sg8
F1.0
ssI01
(dp3248
g6
F0.0
sg7
F0.0
sg8
F1.0
sssI12
(dp3249
I00
(dp3250
g6
F0.0
sg7
F0.0
sg8
F1.0
ssI01
(dp3251
g6
F0.0
sg7
F0.0
sg8
F1.0
sssI13
(dp3252
I00
(dp3253
g6
F0.0
sg7
F0.0
sg8
F1.0
ssI01
(dp3254
g6
F0.0
sg7
F0.0
sg8
F1.0
sssI14
(dp3255
I00
(dp3256
g6
F0.0
sg7
F0.0
sg8
F1.0
ssI01
(dp3257
g6
F0.0
sg7
F0.0
sg8
F1.0
ssssI5
(dp3258
I2
(dp3259
I00
(dp3260
g6
F0.0
sg7
F0.0
sg8
F1.0
ssI01
(dp3261
g6
F0.0
sg7
F0.0
sg8
F1.0
sssI3
(dp3262
I00
(dp3263
g6
F0.0
sg7
F0.0
sg8
F1.0
ssI01
(dp3264
g6
F0.0
sg7
F0.0
sg8
F1.0
sssI4
(dp3265
I00
(dp3266
g6
F0.0
sg7
F0.0
sg8
F1.0
ssI01
(dp3267
g6
F0.0
sg7
F0.0
sg8
F1.0
sssI5
(dp3268
I00
(dp3269
g6
F0.0
sg7
F0.0
sg8
F1.0
ssI01
(dp3270
ssI6
(dp3271
I00
(dp3272
g6
F0.0
sg7
F0.0
sg8
F1.0
ssI01
(dp3273
g6
F0.0
sg7
F0.0
sg8
F1.0
sssI7
(dp3274
I00
(dp3275
g6
F0.0
sg7
F0.0
sg8
F1.0
ssI01
(dp3276
g6
F0.0
sg7
F0.0
sg8
F1.0
sssI8
(dp3277
I00
(dp3278
g6
F0.0
sg7
F0.0
sg8
F1.0
ssI01
(dp3279
g6
F0.0
sg7
F0.0
sg8
F1.0
sssI9
(dp3280
I00
(dp3281
g6
F0.0
sg7
F0.0
sg8
F1.0
ssI01
(dp3282
g6
F0.0
sg7
F0.0
sg8
F1.0
sssI10
(dp3283
I00
(dp3284
g6
F0.0
sg7
F0.0
sg8
F1.0
ssI01
(dp3285
g6
F0.0
sg7
F0.0
sg8
F1.0
sssI11
(dp3286
I00
(dp3287
g6
F0.0
sg7
F0.0
sg8
F1.0
ssI01
(dp3288
g6
F0.0
sg7
F0.0
sg8
F1.0
sssI12
(dp3289
I00
(dp3290
g6
F0.0
sg7
F0.0
sg8
F1.0
ssI01
(dp3291
g6
F0.0
sg7
F0.0
sg8
F1.0
sssI13
(dp3292
I00
(dp3293
g6
F0.0
sg7
F0.0
sg8
F1.0
ssI01
(dp3294
g6
F0.0
sg7
F0.0
sg8
F1.0
sssI14
(dp3295
I00
(dp3296
g6
F0.0
sg7
F0.0
sg8
F1.0
ssI01
(dp3297
g6
F0.0
sg7
F0.0
sg8
F1.0
ssssI6
(dp3298
I2
(dp3299
I00
(dp3300
g6
F0.0
sg7
F0.0
sg8
F1.0
ssI01
(dp3301
g6
F0.0
sg7
F0.0
sg8
F1.0
sssI3
(dp3302
I00
(dp3303
g6
F0.0
sg7
F0.0
sg8
F1.0
ssI01
(dp3304
g6
F0.0
sg7
F0.0
sg8
F1.0
sssI4
(dp3305
I00
(dp3306
g6
F0.0
sg7
F0.0
sg8
F1.0
ssI01
(dp3307
g6
F0.0
sg7
F0.0
sg8
F1.0
sssI5
(dp3308
I00
(dp3309
g6
F0.0
sg7
F0.0
sg8
F1.0
ssI01
(dp3310
g6
F0.0
sg7
F0.0
sg8
F1.0
sssI6
(dp3311
I00
(dp3312
g6
F0.0
sg7
F0.0
sg8
F1.0
ssI01
(dp3313
ssI7
(dp3314
I00
(dp3315
g6
F0.0
sg7
F0.0
sg8
F1.0
ssI01
(dp3316
g6
F0.0
sg7
F0.0
sg8
F1.0
sssI8
(dp3317
I00
(dp3318
g6
F0.0
sg7
F0.0
sg8
F1.0
ssI01
(dp3319
g6
F0.0
sg7
F0.0
sg8
F1.0
sssI9
(dp3320
I00
(dp3321
g6
F0.0
sg7
F0.0
sg8
F1.0
ssI01
(dp3322
g6
F0.0
sg7
F0.0
sg8
F1.0
sssI10
(dp3323
I00
(dp3324
g6
F0.0
sg7
F0.0
sg8
F1.0
ssI01
(dp3325
g6
F0.0
sg7
F0.0
sg8
F1.0
sssI11
(dp3326
I00
(dp3327
g6
F0.0
sg7
F0.0
sg8
F1.0
ssI01
(dp3328
g6
F0.0
sg7
F0.0
sg8
F1.0
sssI12
(dp3329
I00
(dp3330
g6
F0.0
sg7
F0.0
sg8
F1.0
ssI01
(dp3331
g6
F0.0
sg7
F0.0
sg8
F1.0
sssI13
(dp3332
I00
(dp3333
g6
F0.0
sg7
F0.0
sg8
F1.0
ssI01
(dp3334
g6
F0.0
sg7
F0.0
sg8
F1.0
sssI14
(dp3335
I00
(dp3336
g6
F0.0
sg7
F0.0
sg8
F1.0
ssI01
(dp3337
g6
F0.0
sg7
F0.0
sg8
F1.0
ssssI7
(dp3338
I2
(dp3339
I00
(dp3340
g6
F0.0
sg7
F0.0
sg8
F1.0
ssI01
(dp3341
g6
F0.0
sg7
F0.0
sg8
F1.0
sssI3
(dp3342
I00
(dp3343
g6
F0.0
sg7
F0.0
sg8
F1.0
ssI01
(dp3344
g6
F0.0
sg7
F0.0
sg8
F1.0
sssI4
(dp3345
I00
(dp3346
g6
F0.0
sg7
F0.0
sg8
F1.0
ssI01
(dp3347
g6
F0.0
sg7
F0.0
sg8
F1.0
sssI5
(dp3348
I00
(dp3349
g6
F0.0
sg7
F0.0
sg8
F1.0
ssI01
(dp3350
g6
F0.0
sg7
F0.0
sg8
F1.0
sssI6
(dp3351
I00
(dp3352
g6
F0.0
sg7
F0.0
sg8
F1.0
ssI01
(dp3353
g6
F0.0
sg7
F0.0
sg8
F1.0
sssI7
(dp3354
I00
(dp3355
g6
F0.0
sg7
F0.0
sg8
F1.0
ssI01
(dp3356
ssI8
(dp3357
I00
(dp3358
g6
F0.0
sg7
F0.0
sg8
F1.0
ssI01
(dp3359
g6
F0.0
sg7
F0.0
sg8
F1.0
sssI9
(dp3360
I00
(dp3361
g6
F0.0
sg7
F0.0
sg8
F1.0
ssI01
(dp3362
g6
F0.0
sg7
F0.0
sg8
F1.0
sssI10
(dp3363
I00
(dp3364
g6
F0.0
sg7
F0.0
sg8
F1.0
ssI01
(dp3365
g6
F0.0
sg7
F0.0
sg8
F1.0
sssI11
(dp3366
I00
(dp3367
g6
F0.0
sg7
F0.0
sg8
F1.0
ssI01
(dp3368
g6
F0.0
sg7
F0.0
sg8
F1.0
sssI12
(dp3369
I00
(dp3370
g6
F0.0
sg7
F0.0
sg8
F1.0
ssI01
(dp3371
g6
F0.0
sg7
F0.0
sg8
F1.0
sssI13
(dp3372
I00
(dp3373
g6
F0.0
sg7
F0.0
sg8
F1.0
ssI01
(dp3374
g6
F0.0
sg7
F0.0
sg8
F1.0
sssI14
(dp3375
I00
(dp3376
g6
F0.0
sg7
F0.0
sg8
F1.0
ssI01
(dp3377
g6
F0.0
sg7
F0.0
sg8
F1.0
ssssI8
(dp3378
I2
(dp3379
I00
(dp3380
g6
F0.0
sg7
F0.0
sg8
F1.0
ssI01
(dp3381
g6
F0.0
sg7
F0.0
sg8
F1.0
sssI3
(dp3382
I00
(dp3383
g6
F0.0
sg7
F0.0
sg8
F1.0
ssI01
(dp3384
g6
F0.0
sg7
F0.0
sg8
F1.0
sssI4
(dp3385
I00
(dp3386
g6
F0.0
sg7
F0.0
sg8
F1.0
ssI01
(dp3387
g6
F0.0
sg7
F0.0
sg8
F1.0
sssI5
(dp3388
I00
(dp3389
g6
F0.0
sg7
F0.0
sg8
F1.0
ssI01
(dp3390
g6
F0.0
sg7
F0.0
sg8
F1.0
sssI6
(dp3391
I00
(dp3392
g6
F0.0
sg7
F0.0
sg8
F1.0
ssI01
(dp3393
g6
F0.0
sg7
F0.0
sg8
F1.0
sssI7
(dp3394
I00
(dp3395
g6
F0.0
sg7
F0.0
sg8
F1.0
ssI01
(dp3396
g6
F0.0
sg7
F0.0
sg8
F1.0
sssI8
(dp3397
I00
(dp3398
g6
F0.0
sg7
F0.0
sg8
F1.0
ssI01
(dp3399
ssI9
(dp3400
I00
(dp3401
g6
F0.0
sg7
F0.0
sg8
F1.0
ssI01
(dp3402
g6
F0.0
sg7
F0.0
sg8
F1.0
sssI10
(dp3403
I00
(dp3404
g6
F0.0
sg7
F0.0
sg8
F1.0
ssI01
(dp3405
g6
F0.0
sg7
F0.0
sg8
F1.0
sssI11
(dp3406
I00
(dp3407
g6
F0.0
sg7
F0.0
sg8
F1.0
ssI01
(dp3408
g6
F0.0
sg7
F0.0
sg8
F1.0
sssI12
(dp3409
I00
(dp3410
g6
F0.0
sg7
F0.0
sg8
F1.0
ssI01
(dp3411
g6
F0.0
sg7
F0.0
sg8
F1.0
sssI13
(dp3412
I00
(dp3413
g6
F0.0
sg7
F0.0
sg8
F1.0
ssI01
(dp3414
g6
F0.0
sg7
F0.0
sg8
F1.0
sssI14
(dp3415
I00
(dp3416
g6
F0.0
sg7
F0.0
sg8
F1.0
ssI01
(dp3417
g6
F0.0
sg7
F0.0
sg8
F1.0
ssssI9
(dp3418
I2
(dp3419
I00
(dp3420
g6
F0.0
sg7
F0.0
sg8
F1.0
ssI01
(dp3421
g6
F0.0
sg7
F0.0
sg8
F1.0
sssI3
(dp3422
I00
(dp3423
g6
F0.0
sg7
F0.0
sg8
F1.0
ssI01
(dp3424
g6
F0.0
sg7
F0.0
sg8
F1.0
sssI4
(dp3425
I00
(dp3426
g6
F0.0
sg7
F0.0
sg8
F1.0
ssI01
(dp3427
g6
F0.0
sg7
F0.0
sg8
F1.0
sssI5
(dp3428
I00
(dp3429
g6
F0.0
sg7
F0.0
sg8
F1.0
ssI01
(dp3430
g6
F0.0
sg7
F0.0
sg8
F1.0
sssI6
(dp3431
I00
(dp3432
g6
F0.0
sg7
F0.0
sg8
F1.0
ssI01
(dp3433
g6
F0.0
sg7
F0.0
sg8
F1.0
sssI7
(dp3434
I00
(dp3435
g6
F0.0
sg7
F0.0
sg8
F1.0
ssI01
(dp3436
g6
F0.0
sg7
F0.0
sg8
F1.0
sssI8
(dp3437
I00
(dp3438
g6
F0.0
sg7
F0.0
sg8
F1.0
ssI01
(dp3439
g6
F0.0
sg7
F0.0
sg8
F1.0
sssI9
(dp3440
I00
(dp3441
g6
F0.0
sg7
F0.0
sg8
F1.0
ssI01
(dp3442
ssI10
(dp3443
I00
(dp3444
g6
F0.0
sg7
F0.0
sg8
F1.0
ssI01
(dp3445
g6
F0.0
sg7
F0.0
sg8
F1.0
sssI11
(dp3446
I00
(dp3447
g6
F0.0
sg7
F0.0
sg8
F1.0
ssI01
(dp3448
g6
F0.0
sg7
F0.0
sg8
F1.0
sssI12
(dp3449
I00
(dp3450
g6
F0.0
sg7
F0.0
sg8
F1.0
ssI01
(dp3451
g6
F0.0
sg7
F0.0
sg8
F1.0
sssI13
(dp3452
I00
(dp3453
g6
F0.0
sg7
F0.0
sg8
F1.0
ssI01
(dp3454
g6
F0.0
sg7
F0.0
sg8
F1.0
sssI14
(dp3455
I00
(dp3456
g6
F0.0
sg7
F0.0
sg8
F1.0
ssI01
(dp3457
g6
F0.0
sg7
F0.0
sg8
F1.0
ssssI10
(dp3458
I2
(dp3459
I00
(dp3460
g6
F0.0
sg7
F0.0
sg8
F1.0
ssI01
(dp3461
g6
F0.0
sg7
F0.0
sg8
F1.0
sssI3
(dp3462
I00
(dp3463
g6
F0.0
sg7
F0.0
sg8
F1.0
ssI01
(dp3464
g6
F0.0
sg7
F0.0
sg8
F1.0
sssI4
(dp3465
I00
(dp3466
g6
F0.0
sg7
F0.0
sg8
F1.0
ssI01
(dp3467
g6
F0.0
sg7
F0.0
sg8
F1.0
sssI5
(dp3468
I00
(dp3469
g6
F0.0
sg7
F0.0
sg8
F1.0
ssI01
(dp3470
g6
F0.0
sg7
F0.0
sg8
F1.0
sssI6
(dp3471
I00
(dp3472
g6
F0.0
sg7
F0.0
sg8
F1.0
ssI01
(dp3473
g6
F0.0
sg7
F0.0
sg8
F1.0
sssI7
(dp3474
I00
(dp3475
g6
F0.0
sg7
F0.0
sg8
F1.0
ssI01
(dp3476
g6
F0.0
sg7
F0.0
sg8
F1.0
sssI8
(dp3477
I00
(dp3478
g6
F0.0
sg7
F0.0
sg8
F1.0
ssI01
(dp3479
g6
F0.0
sg7
F0.0
sg8
F1.0
sssI9
(dp3480
I00
(dp3481
g6
F0.0
sg7
F0.0
sg8
F1.0
ssI01
(dp3482
g6
F0.0
sg7
F0.0
sg8
F1.0
sssI10
(dp3483
I00
(dp3484
g6
F0.0
sg7
F0.0
sg8
F1.0
ssI01
(dp3485
ssI11
(dp3486
I00
(dp3487
g6
F0.0
sg7
F0.0
sg8
F1.0
ssI01
(dp3488
g6
F0.0
sg7
F0.0
sg8
F1.0
sssI12
(dp3489
I00
(dp3490
g6
F0.0
sg7
F0.0
sg8
F1.0
ssI01
(dp3491
g6
F0.0
sg7
F0.0
sg8
F1.0
sssI13
(dp3492
I00
(dp3493
g6
F0.0
sg7
F0.0
sg8
F1.0
ssI01
(dp3494
g6
F0.0
sg7
F0.0
sg8
F1.0
sssI14
(dp3495
I00
(dp3496
g6
F0.0
sg7
F0.0
sg8
F1.0
ssI01
(dp3497
g6
F0.0
sg7
F0.0
sg8
F1.0
ssssI11
(dp3498
I2
(dp3499
I00
(dp3500
g6
F0.0
sg7
F0.0
sg8
F1.0
ssI01
(dp3501
g6
F0.0
sg7
F0.0
sg8
F1.0
sssI3
(dp3502
I00
(dp3503
g6
F0.0
sg7
F0.0
sg8
F1.0
ssI01
(dp3504
g6
F0.0
sg7
F0.0
sg8
F1.0
sssI4
(dp3505
I00
(dp3506
g6
F0.0
sg7
F0.0
sg8
F1.0
ssI01
(dp3507
g6
F0.0
sg7
F0.0
sg8
F1.0
sssI5
(dp3508
I00
(dp3509
g6
F0.0
sg7
F0.0
sg8
F1.0
ssI01
(dp3510
g6
F0.0
sg7
F0.0
sg8
F1.0
sssI6
(dp3511
I00
(dp3512
g6
F0.0
sg7
F0.0
sg8
F1.0
ssI01
(dp3513
g6
F0.0
sg7
F0.0
sg8
F1.0
sssI7
(dp3514
I00
(dp3515
g6
F0.0
sg7
F0.0
sg8
F1.0
ssI01
(dp3516
g6
F0.0
sg7
F0.0
sg8
F1.0
sssI8
(dp3517
I00
(dp3518
g6
F0.0
sg7
F0.0
sg8
F1.0
ssI01
(dp3519
g6
F0.0
sg7
F0.0
sg8
F1.0
sssI9
(dp3520
I00
(dp3521
g6
F0.0
sg7
F0.0
sg8
F1.0
ssI01
(dp3522
g6
F0.0
sg7
F0.0
sg8
F1.0
sssI10
(dp3523
I00
(dp3524
g6
F0.0
sg7
F0.0
sg8
F1.0
ssI01
(dp3525
g6
F0.0
sg7
F0.0
sg8
F1.0
sssI11
(dp3526
I00
(dp3527
g6
F0.0
sg7
F0.0
sg8
F1.0
ssI01
(dp3528
ssI12
(dp3529
I00
(dp3530
g6
F0.0
sg7
F0.0
sg8
F1.0
ssI01
(dp3531
g6
F0.0
sg7
F0.0
sg8
F1.0
sssI13
(dp3532
I00
(dp3533
g6
F0.0
sg7
F0.0
sg8
F1.0
ssI01
(dp3534
g6
F0.0
sg7
F0.0
sg8
F1.0
sssI14
(dp3535
I00
(dp3536
g6
F0.0
sg7
F0.0
sg8
F1.0
ssI01
(dp3537
g6
F0.0
sg7
F0.0
sg8
F1.0
ssssI12
(dp3538
I2
(dp3539
I00
(dp3540
g6
F0.0
sg7
F0.0
sg8
F1.0
ssI01
(dp3541
g6
F0.0
sg7
F0.0
sg8
F1.0
sssI3
(dp3542
I00
(dp3543
g6
F0.0
sg7
F0.0
sg8
F1.0
ssI01
(dp3544
g6
F0.0
sg7
F0.0
sg8
F1.0
sssI4
(dp3545
I00
(dp3546
g6
F0.0
sg7
F0.0
sg8
F1.0
ssI01
(dp3547
g6
F0.0
sg7
F0.0
sg8
F1.0
sssI5
(dp3548
I00
(dp3549
g6
F0.0
sg7
F0.0
sg8
F1.0
ssI01
(dp3550
g6
F0.0
sg7
F0.0
sg8
F1.0
sssI6
(dp3551
I00
(dp3552
g6
F0.0
sg7
F0.0
sg8
F1.0
ssI01
(dp3553
g6
F0.0
sg7
F0.0
sg8
F1.0
sssI7
(dp3554
I00
(dp3555
g6
F0.0
sg7
F0.0
sg8
F1.0
ssI01
(dp3556
g6
F0.0
sg7
F0.0
sg8
F1.0
sssI8
(dp3557
I00
(dp3558
g6
F0.0
sg7
F0.0
sg8
F1.0
ssI01
(dp3559
g6
F0.0
sg7
F0.0
sg8
F1.0
sssI9
(dp3560
I00
(dp3561
g6
F0.0
sg7
F0.0
sg8
F1.0
ssI01
(dp3562
g6
F0.0
sg7
F0.0
sg8
F1.0
sssI10
(dp3563
I00
(dp3564
g6
F0.0
sg7
F0.0
sg8
F1.0
ssI01
(dp3565
g6
F0.0
sg7
F0.0
sg8
F1.0
sssI11
(dp3566
I00
(dp3567
g6
F0.0
sg7
F0.0
sg8
F1.0
ssI01
(dp3568
g6
F0.0
sg7
F0.0
sg8
F1.0
sssI12
(dp3569
I00
(dp3570
g6
F0.0
sg7
F0.0
sg8
F1.0
ssI01
(dp3571
ssI13
(dp3572
I00
(dp3573
g6
F0.0
sg7
F0.0
sg8
F1.0
ssI01
(dp3574
g6
F0.0
sg7
F0.0
sg8
F1.0
sssI14
(dp3575
I00
(dp3576
g6
F0.0
sg7
F0.0
sg8
F1.0
ssI01
(dp3577
g6
F0.0
sg7
F0.0
sg8
F1.0
ssssI13
(dp3578
I2
(dp3579
I00
(dp3580
g6
F0.0
sg7
F0.0
sg8
F1.0
ssI01
(dp3581
g6
F0.0
sg7
F0.0
sg8
F1.0
sssI3
(dp3582
I00
(dp3583
g6
F0.0
sg7
F0.0
sg8
F1.0
ssI01
(dp3584
g6
F0.0
sg7
F0.0
sg8
F1.0
sssI4
(dp3585
I00
(dp3586
g6
F0.0
sg7
F0.0
sg8
F1.0
ssI01
(dp3587
g6
F0.0
sg7
F0.0
sg8
F1.0
sssI5
(dp3588
I00
(dp3589
g6
F0.0
sg7
F0.0
sg8
F1.0
ssI01
(dp3590
g6
F0.0
sg7
F0.0
sg8
F1.0
sssI6
(dp3591
I00
(dp3592
g6
F0.0
sg7
F0.0
sg8
F1.0
ssI01
(dp3593
g6
F0.0
sg7
F0.0
sg8
F1.0
sssI7
(dp3594
I00
(dp3595
g6
F0.0
sg7
F0.0
sg8
F1.0
ssI01
(dp3596
g6
F0.0
sg7
F0.0
sg8
F1.0
sssI8
(dp3597
I00
(dp3598
g6
F0.0
sg7
F0.0
sg8
F1.0
ssI01
(dp3599
g6
F0.0
sg7
F0.0
sg8
F1.0
sssI9
(dp3600
I00
(dp3601
g6
F0.0
sg7
F0.0
sg8
F1.0
ssI01
(dp3602
g6
F0.0
sg7
F0.0
sg8
F1.0
sssI10
(dp3603
I00
(dp3604
g6
F0.0
sg7
F0.0
sg8
F1.0
ssI01
(dp3605
g6
F0.0
sg7
F0.0
sg8
F1.0
sssI11
(dp3606
I00
(dp3607
g6
F0.0
sg7
F0.0
sg8
F1.0
ssI01
(dp3608
g6
F0.0
sg7
F0.0
sg8
F1.0
sssI12
(dp3609
I00
(dp3610
g6
F0.0
sg7
F0.0
sg8
F1.0
ssI01
(dp3611
g6
F0.0
sg7
F0.0
sg8
F1.0
sssI13
(dp3612
I00
(dp3613
g6
F0.0
sg7
F0.0
sg8
F1.0
ssI01
(dp3614
ssI14
(dp3615
I00
(dp3616
g6
F0.0
sg7
F0.0
sg8
F1.0
ssI01
(dp3617
g6
F0.0
sg7
F0.0
sg8
F1.0
ssssI14
(dp3618
I2
(dp3619
I00
(dp3620
g6
F0.0
sg7
F0.0
sg8
F1.0
ssI01
(dp3621
g6
F0.0
sg7
F0.0
sg8
F1.0
sssI3
(dp3622
I00
(dp3623
g6
F0.0
sg7
F0.0
sg8
F1.0
ssI01
(dp3624
g6
F0.0
sg7
F0.0
sg8
F1.0
sssI4
(dp3625
I00
(dp3626
g6
F0.0
sg7
F0.0
sg8
F1.0
ssI01
(dp3627
g6
F0.0
sg7
F0.0
sg8
F1.0
sssI5
(dp3628
I00
(dp3629
g6
F0.0
sg7
F0.0
sg8
F1.0
ssI01
(dp3630
g6
F0.0
sg7
F0.0
sg8
F1.0
sssI6
(dp3631
I00
(dp3632
g6
F0.0
sg7
F0.0
sg8
F1.0
ssI01
(dp3633
g6
F0.0
sg7
F0.0
sg8
F1.0
sssI7
(dp3634
I00
(dp3635
g6
F0.0
sg7
F0.0
sg8
F1.0
ssI01
(dp3636
g6
F0.0
sg7
F0.0
sg8
F1.0
sssI8
(dp3637
I00
(dp3638
g6
F0.0
sg7
F0.0
sg8
F1.0
ssI01
(dp3639
g6
F0.0
sg7
F0.0
sg8
F1.0
sssI9
(dp3640
I00
(dp3641
g6
F0.0
sg7
F0.0
sg8
F1.0
ssI01
(dp3642
g6
F0.0
sg7
F0.0
sg8
F1.0
sssI10
(dp3643
I00
(dp3644
g6
F0.0
sg7
F0.0
sg8
F1.0
ssI01
(dp3645
g6
F0.0
sg7
F0.0
sg8
F1.0
sssI11
(dp3646
I00
(dp3647
g6
F0.0
sg7
F0.0
sg8
F1.0
ssI01
(dp3648
g6
F0.0
sg7
F0.0
sg8
F1.0
sssI12
(dp3649
I00
(dp3650
g6
F0.0
sg7
F0.0
sg8
F1.0
ssI01
(dp3651
g6
F0.0
sg7
F0.0
sg8
F1.0
sssI13
(dp3652
I00
(dp3653
g6
F0.0
sg7
F0.0
sg8
F1.0
ssI01
(dp3654
g6
F0.0
sg7
F0.0
sg8
F1.0
sssI14
(dp3655
I00
(dp3656
g6
F0.0
sg7
F0.0
sg8
F1.0
ssI01
(dp3657
ssssS'crrr'
p3658
(dp3659
I2
(dp3660
I2
(dp3661
I00
(dp3662
g6
F0.0
sg7
F0.0
sg8
F1.0
ssI01
(dp3663
ssI3
(dp3664
I00
(dp3665
g6
F0.0
sg7
F0.0
sg8
F1.0
ssI01
(dp3666
g6
F0.0
sg7
F0.0
sg8
F1.0
sssI4
(dp3667
I00
(dp3668
g6
F0.0
sg7
F0.0
sg8
F1.0
ssI01
(dp3669
g6
F0.0
sg7
F0.0
sg8
F1.0
sssI5
(dp3670
I00
(dp3671
g6
F0.0
sg7
F0.0
sg8
F1.0
ssI01
(dp3672
g6
F0.0
sg7
F0.0
sg8
F1.0
sssI6
(dp3673
I00
(dp3674
g6
F0.0
sg7
F0.0
sg8
F1.0
ssI01
(dp3675
g6
F0.0
sg7
F0.0
sg8
F1.0
sssI7
(dp3676
I00
(dp3677
g6
F0.0
sg7
F0.0
sg8
F1.0
ssI01
(dp3678
g6
F0.0
sg7
F0.0
sg8
F1.0
sssI8
(dp3679
I00
(dp3680
g6
F0.0
sg7
F0.0
sg8
F1.0
ssI01
(dp3681
g6
F0.0
sg7
F0.0
sg8
F1.0
sssI9
(dp3682
I00
(dp3683
g6
F0.0
sg7
F0.0
sg8
F1.0
ssI01
(dp3684
g6
F0.0
sg7
F0.0
sg8
F1.0
sssI10
(dp3685
I00
(dp3686
g6
F0.0
sg7
F0.0
sg8
F1.0
ssI01
(dp3687
g6
F0.0
sg7
F0.0
sg8
F1.0
sssI11
(dp3688
I00
(dp3689
g6
F0.0
sg7
F0.0
sg8
F1.0
ssI01
(dp3690
g6
F0.0
sg7
F0.0
sg8
F1.0
sssI12
(dp3691
I00
(dp3692
g6
F0.0
sg7
F0.0
sg8
F1.0
ssI01
(dp3693
g6
F0.0
sg7
F0.0
sg8
F1.0
sssI13
(dp3694
I00
(dp3695
g6
F0.0
sg7
F0.0
sg8
F1.0
ssI01
(dp3696
g6
F0.0
sg7
F0.0
sg8
F1.0
sssI14
(dp3697
I00
(dp3698
g6
F0.0
sg7
F0.0
sg8
F1.0
ssI01
(dp3699
g6
F0.0
sg7
F0.0
sg8
F1.0
ssssI3
(dp3700
I2
(dp3701
I00
(dp3702
g6
F0.0
sg7
F0.0
sg8
F1.0
ssI01
(dp3703
g6
F0.0
sg7
F0.0
sg8
F1.0
sssI3
(dp3704
I00
(dp3705
g6
F0.0
sg7
F0.0
sg8
F1.0
ssI01
(dp3706
ssI4
(dp3707
I00
(dp3708
g6
F0.0
sg7
F0.0
sg8
F1.0
ssI01
(dp3709
g6
F0.0
sg7
F0.0
sg8
F1.0
sssI5
(dp3710
I00
(dp3711
g6
F0.0
sg7
F0.0
sg8
F1.0
ssI01
(dp3712
g6
F0.0
sg7
F0.0
sg8
F1.0
sssI6
(dp3713
I00
(dp3714
g6
F0.0
sg7
F0.0
sg8
F1.0
ssI01
(dp3715
g6
F0.0
sg7
F0.0
sg8
F1.0
sssI7
(dp3716
I00
(dp3717
g6
F0.0
sg7
F0.0
sg8
F1.0
ssI01
(dp3718
g6
F0.0
sg7
F0.0
sg8
F1.0
sssI8
(dp3719
I00
(dp3720
g6
F0.0
sg7
F0.0
sg8
F1.0
ssI01
(dp3721
g6
F0.0
sg7
F0.0
sg8
F1.0
sssI9
(dp3722
I00
(dp3723
g6
F0.0
sg7
F0.0
sg8
F1.0
ssI01
(dp3724
g6
F0.0
sg7
F0.0
sg8
F1.0
sssI10
(dp3725
I00
(dp3726
g6
F0.0
sg7
F0.0
sg8
F1.0
ssI01
(dp3727
g6
F0.0
sg7
F0.0
sg8
F1.0
sssI11
(dp3728
I00
(dp3729
g6
F0.0
sg7
F0.0
sg8
F1.0
ssI01
(dp3730
g6
F0.0
sg7
F0.0
sg8
F1.0
sssI12
(dp3731
I00
(dp3732
g6
F0.0
sg7
F0.0
sg8
F1.0
ssI01
(dp3733
g6
F0.0
sg7
F0.0
sg8
F1.0
sssI13
(dp3734
I00
(dp3735
g6
F0.0
sg7
F0.0
sg8
F1.0
ssI01
(dp3736
g6
F0.0
sg7
F0.0
sg8
F1.0
sssI14
(dp3737
I00
(dp3738
g6
F0.0
sg7
F0.0
sg8
F1.0
ssI01
(dp3739
g6
F0.0
sg7
F0.0
sg8
F1.0
ssssI4
(dp3740
I2
(dp3741
I00
(dp3742
g6
F0.0
sg7
F0.0
sg8
F1.0
ssI01
(dp3743
g6
F0.0
sg7
F0.0
sg8
F1.0
sssI3
(dp3744
I00
(dp3745
g6
F0.0
sg7
F0.0
sg8
F1.0
ssI01
(dp3746
g6
F0.0
sg7
F0.0
sg8
F1.0
sssI4
(dp3747
I00
(dp3748
g6
F0.0
sg7
F0.0
sg8
F1.0
ssI01
(dp3749
ssI5
(dp3750
I00
(dp3751
g6
F0.0
sg7
F0.0
sg8
F1.0
ssI01
(dp3752
g6
F0.0
sg7
F0.0
sg8
F1.0
sssI6
(dp3753
I00
(dp3754
g6
F0.0
sg7
F0.0
sg8
F1.0
ssI01
(dp3755
g6
F0.0
sg7
F0.0
sg8
F1.0
sssI7
(dp3756
I00
(dp3757
g6
F0.0
sg7
F0.0
sg8
F1.0
ssI01
(dp3758
g6
F0.0
sg7
F0.0
sg8
F1.0
sssI8
(dp3759
I00
(dp3760
g6
F0.0
sg7
F0.0
sg8
F1.0
ssI01
(dp3761
g6
F0.0
sg7
F0.0
sg8
F1.0
sssI9
(dp3762
I00
(dp3763
g6
F0.0
sg7
F0.0
sg8
F1.0
ssI01
(dp3764
g6
F0.0
sg7
F0.0
sg8
F1.0
sssI10
(dp3765
I00
(dp3766
g6
F0.0
sg7
F0.0
sg8
F1.0
ssI01
(dp3767
g6
F0.0
sg7
F0.0
sg8
F1.0
sssI11
(dp3768
I00
(dp3769
g6
F0.0
sg7
F0.0
sg8
F1.0
ssI01
(dp3770
g6
F0.0
sg7
F0.0
sg8
F1.0
sssI12
(dp3771
I00
(dp3772
g6
F0.0
sg7
F0.0
sg8
F1.0
ssI01
(dp3773
g6
F0.0
sg7
F0.0
sg8
F1.0
sssI13
(dp3774
I00
(dp3775
g6
F0.0
sg7
F0.0
sg8
F1.0
ssI01
(dp3776
g6
F0.0
sg7
F0.0
sg8
F1.0
sssI14
(dp3777
I00
(dp3778
g6
F0.0
sg7
F0.0
sg8
F1.0
ssI01
(dp3779
g6
F0.0
sg7
F0.0
sg8
F1.0
ssssI5
(dp3780
I2
(dp3781
I00
(dp3782
g6
F0.0
sg7
F0.0
sg8
F1.0
ssI01
(dp3783
g6
F0.0
sg7
F0.0
sg8
F1.0
sssI3
(dp3784
I00
(dp3785
g6
F0.0
sg7
F0.0
sg8
F1.0
ssI01
(dp3786
g6
F0.0
sg7
F0.0
sg8
F1.0
sssI4
(dp3787
I00
(dp3788
g6
F0.0
sg7
F0.0
sg8
F1.0
ssI01
(dp3789
g6
F0.0
sg7
F0.0
sg8
F1.0
sssI5
(dp3790
I00
(dp3791
g6
F0.0
sg7
F0.0
sg8
F1.0
ssI01
(dp3792
ssI6
(dp3793
I00
(dp3794
g6
F0.0
sg7
F0.0
sg8
F1.0
ssI01
(dp3795
g6
F0.0
sg7
F0.0
sg8
F1.0
sssI7
(dp3796
I00
(dp3797
g6
F0.0
sg7
F0.0
sg8
F1.0
ssI01
(dp3798
g6
F0.0
sg7
F0.0
sg8
F1.0
sssI8
(dp3799
I00
(dp3800
g6
F0.0
sg7
F0.0
sg8
F1.0
ssI01
(dp3801
g6
F0.0
sg7
F0.0
sg8
F1.0
sssI9
(dp3802
I00
(dp3803
g6
F0.0
sg7
F0.0
sg8
F1.0
ssI01
(dp3804
g6
F0.0
sg7
F0.0
sg8
F1.0
sssI10
(dp3805
I00
(dp3806
g6
F0.0
sg7
F0.0
sg8
F1.0
ssI01
(dp3807
g6
F0.0
sg7
F0.0
sg8
F1.0
sssI11
(dp3808
I00
(dp3809
g6
F0.0
sg7
F0.0
sg8
F1.0
ssI01
(dp3810
g6
F0.0
sg7
F0.0
sg8
F1.0
sssI12
(dp3811
I00
(dp3812
g6
F0.0
sg7
F0.0
sg8
F1.0
ssI01
(dp3813
g6
F0.0
sg7
F0.0
sg8
F1.0
sssI13
(dp3814
I00
(dp3815
g6
F0.0
sg7
F0.0
sg8
F1.0
ssI01
(dp3816
g6
F0.0
sg7
F0.0
sg8
F1.0
sssI14
(dp3817
I00
(dp3818
g6
F0.0
sg7
F0.0
sg8
F1.0
ssI01
(dp3819
g6
F0.0
sg7
F0.0
sg8
F1.0
ssssI6
(dp3820
I2
(dp3821
I00
(dp3822
g6
F0.0
sg7
F0.0
sg8
F1.0
ssI01
(dp3823
g6
F0.0
sg7
F0.0
sg8
F1.0
sssI3
(dp3824
I00
(dp3825
g6
F0.0
sg7
F0.0
sg8
F1.0
ssI01
(dp3826
g6
F0.0
sg7
F0.0
sg8
F1.0
sssI4
(dp3827
I00
(dp3828
g6
F0.0
sg7
F0.0
sg8
F1.0
ssI01
(dp3829
g6
F0.0
sg7
F0.0
sg8
F1.0
sssI5
(dp3830
I00
(dp3831
g6
F0.0
sg7
F0.0
sg8
F1.0
ssI01
(dp3832
g6
F0.0
sg7
F0.0
sg8
F1.0
sssI6
(dp3833
I00
(dp3834
g6
F0.0
sg7
F0.0
sg8
F1.0
ssI01
(dp3835
ssI7
(dp3836
I00
(dp3837
g6
F0.0
sg7
F0.0
sg8
F1.0
ssI01
(dp3838
g6
F0.0
sg7
F0.0
sg8
F1.0
sssI8
(dp3839
I00
(dp3840
g6
F0.0
sg7
F0.0
sg8
F1.0
ssI01
(dp3841
g6
F0.0
sg7
F0.0
sg8
F1.0
sssI9
(dp3842
I00
(dp3843
g6
F0.0
sg7
F0.0
sg8
F1.0
ssI01
(dp3844
g6
F0.0
sg7
F0.0
sg8
F1.0
sssI10
(dp3845
I00
(dp3846
g6
F0.0
sg7
F0.0
sg8
F1.0
ssI01
(dp3847
g6
F0.0
sg7
F0.0
sg8
F1.0
sssI11
(dp3848
I00
(dp3849
g6
F0.0
sg7
F0.0
sg8
F1.0
ssI01
(dp3850
g6
F0.0
sg7
F0.0
sg8
F1.0
sssI12
(dp3851
I00
(dp3852
g6
F0.0
sg7
F0.0
sg8
F1.0
ssI01
(dp3853
g6
F0.0
sg7
F0.0
sg8
F1.0
sssI13
(dp3854
I00
(dp3855
g6
F0.0
sg7
F0.0
sg8
F1.0
ssI01
(dp3856
g6
F0.0
sg7
F0.0
sg8
F1.0
sssI14
(dp3857
I00
(dp3858
g6
F0.0
sg7
F0.0
sg8
F1.0
ssI01
(dp3859
g6
F0.0
sg7
F0.0
sg8
F1.0
ssssI7
(dp3860
I2
(dp3861
I00
(dp3862
g6
F0.0
sg7
F0.0
sg8
F1.0
ssI01
(dp3863
g6
F0.0
sg7
F0.0
sg8
F1.0
sssI3
(dp3864
I00
(dp3865
g6
F0.0
sg7
F0.0
sg8
F1.0
ssI01
(dp3866
g6
F0.0
sg7
F0.0
sg8
F1.0
sssI4
(dp3867
I00
(dp3868
g6
F0.0
sg7
F0.0
sg8
F1.0
ssI01
(dp3869
g6
F0.0
sg7
F0.0
sg8
F1.0
sssI5
(dp3870
I00
(dp3871
g6
F0.0
sg7
F0.0
sg8
F1.0
ssI01
(dp3872
g6
F0.0
sg7
F0.0
sg8
F1.0
sssI6
(dp3873
I00
(dp3874
g6
F0.0
sg7
F0.0
sg8
F1.0
ssI01
(dp3875
g6
F0.0
sg7
F0.0
sg8
F1.0
sssI7
(dp3876
I00
(dp3877
g6
F0.0
sg7
F0.0
sg8
F1.0
ssI01
(dp3878
ssI8
(dp3879
I00
(dp3880
g6
F0.0
sg7
F0.0
sg8
F1.0
ssI01
(dp3881
g6
F0.0
sg7
F0.0
sg8
F1.0
sssI9
(dp3882
I00
(dp3883
g6
F0.0
sg7
F0.0
sg8
F1.0
ssI01
(dp3884
g6
F0.0
sg7
F0.0
sg8
F1.0
sssI10
(dp3885
I00
(dp3886
g6
F0.0
sg7
F0.0
sg8
F1.0
ssI01
(dp3887
g6
F0.0
sg7
F0.0
sg8
F1.0
sssI11
(dp3888
I00
(dp3889
g6
F0.0
sg7
F0.0
sg8
F1.0
ssI01
(dp3890
g6
F0.0
sg7
F0.0
sg8
F1.0
sssI12
(dp3891
I00
(dp3892
g6
F0.0
sg7
F0.0
sg8
F1.0
ssI01
(dp3893
g6
F0.0
sg7
F0.0
sg8
F1.0
sssI13
(dp3894
I00
(dp3895
g6
F0.0
sg7
F0.0
sg8
F1.0
ssI01
(dp3896
g6
F0.0
sg7
F0.0
sg8
F1.0
sssI14
(dp3897
I00
(dp3898
g6
F0.0
sg7
F0.0
sg8
F1.0
ssI01
(dp3899
g6
F0.0
sg7
F0.0
sg8
F1.0
ssssI8
(dp3900
I2
(dp3901
I00
(dp3902
g6
F0.0
sg7
F0.0
sg8
F1.0
ssI01
(dp3903
g6
F0.0
sg7
F0.0
sg8
F1.0
sssI3
(dp3904
I00
(dp3905
g6
F0.0
sg7
F0.0
sg8
F1.0
ssI01
(dp3906
g6
F0.0
sg7
F0.0
sg8
F1.0
sssI4
(dp3907
I00
(dp3908
g6
F0.0
sg7
F0.0
sg8
F1.0
ssI01
(dp3909
g6
F0.0
sg7
F0.0
sg8
F1.0
sssI5
(dp3910
I00
(dp3911
g6
F0.0
sg7
F0.0
sg8
F1.0
ssI01
(dp3912
g6
F0.0
sg7
F0.0
sg8
F1.0
sssI6
(dp3913
I00
(dp3914
g6
F0.0
sg7
F0.0
sg8
F1.0
ssI01
(dp3915
g6
F0.0
sg7
F0.0
sg8
F1.0
sssI7
(dp3916
I00
(dp3917
g6
F0.0
sg7
F0.0
sg8
F1.0
ssI01
(dp3918
g6
F0.0
sg7
F0.0
sg8
F1.0
sssI8
(dp3919
I00
(dp3920
g6
F0.0
sg7
F0.0
sg8
F1.0
ssI01
(dp3921
ssI9
(dp3922
I00
(dp3923
g6
F0.0
sg7
F0.0
sg8
F1.0
ssI01
(dp3924
g6
F0.0
sg7
F0.0
sg8
F1.0
sssI10
(dp3925
I00
(dp3926
g6
F0.0
sg7
F0.0
sg8
F1.0
ssI01
(dp3927
g6
F0.0
sg7
F0.0
sg8
F1.0
sssI11
(dp3928
I00
(dp3929
g6
F0.0
sg7
F0.0
sg8
F1.0
ssI01
(dp3930
g6
F0.0
sg7
F0.0
sg8
F1.0
sssI12
(dp3931
I00
(dp3932
g6
F0.0
sg7
F0.0
sg8
F1.0
ssI01
(dp3933
g6
F0.0
sg7
F0.0
sg8
F1.0
sssI13
(dp3934
I00
(dp3935
g6
F0.0
sg7
F0.0
sg8
F1.0
ssI01
(dp3936
g6
F0.0
sg7
F0.0
sg8
F1.0
sssI14
(dp3937
I00
(dp3938
g6
F0.0
sg7
F0.0
sg8
F1.0
ssI01
(dp3939
g6
F0.0
sg7
F0.0
sg8
F1.0
ssssI9
(dp3940
I2
(dp3941
I00
(dp3942
g6
F0.0
sg7
F0.0
sg8
F1.0
ssI01
(dp3943
g6
F0.0
sg7
F0.0
sg8
F1.0
sssI3
(dp3944
I00
(dp3945
g6
F0.0
sg7
F0.0
sg8
F1.0
ssI01
(dp3946
g6
F0.0
sg7
F0.0
sg8
F1.0
sssI4
(dp3947
I00
(dp3948
g6
F0.0
sg7
F0.0
sg8
F1.0
ssI01
(dp3949
g6
F0.0
sg7
F0.0
sg8
F1.0
sssI5
(dp3950
I00
(dp3951
g6
F0.0
sg7
F0.0
sg8
F1.0
ssI01
(dp3952
g6
F0.0
sg7
F0.0
sg8
F1.0
sssI6
(dp3953
I00
(dp3954
g6
F0.0
sg7
F0.0
sg8
F1.0
ssI01
(dp3955
g6
F0.0
sg7
F0.0
sg8
F1.0
sssI7
(dp3956
I00
(dp3957
g6
F0.0
sg7
F0.0
sg8
F1.0
ssI01
(dp3958
g6
F0.0
sg7
F0.0
sg8
F1.0
sssI8
(dp3959
I00
(dp3960
g6
F0.0
sg7
F0.0
sg8
F1.0
ssI01
(dp3961
g6
F0.0
sg7
F0.0
sg8
F1.0
sssI9
(dp3962
I00
(dp3963
g6
F0.0
sg7
F0.0
sg8
F1.0
ssI01
(dp3964
ssI10
(dp3965
I00
(dp3966
g6
F0.0
sg7
F0.0
sg8
F1.0
ssI01
(dp3967
g6
F0.0
sg7
F0.0
sg8
F1.0
sssI11
(dp3968
I00
(dp3969
g6
F0.0
sg7
F0.0
sg8
F1.0
ssI01
(dp3970
g6
F0.0
sg7
F0.0
sg8
F1.0
sssI12
(dp3971
I00
(dp3972
g6
F0.0
sg7
F0.0
sg8
F1.0
ssI01
(dp3973
g6
F0.0
sg7
F0.0
sg8
F1.0
sssI13
(dp3974
I00
(dp3975
g6
F0.0
sg7
F0.0
sg8
F1.0
ssI01
(dp3976
g6
F0.0
sg7
F0.0
sg8
F1.0
sssI14
(dp3977
I00
(dp3978
g6
F0.0
sg7
F0.0
sg8
F1.0
ssI01
(dp3979
g6
F0.0
sg7
F0.0
sg8
F1.0
ssssI10
(dp3980
I2
(dp3981
I00
(dp3982
g6
F0.0
sg7
F0.0
sg8
F1.0
ssI01
(dp3983
g6
F0.0
sg7
F0.0
sg8
F1.0
sssI3
(dp3984
I00
(dp3985
g6
F0.0
sg7
F0.0
sg8
F1.0
ssI01
(dp3986
g6
F0.0
sg7
F0.0
sg8
F1.0
sssI4
(dp3987
I00
(dp3988
g6
F0.0
sg7
F0.0
sg8
F1.0
ssI01
(dp3989
g6
F0.0
sg7
F0.0
sg8
F1.0
sssI5
(dp3990
I00
(dp3991
g6
F0.0
sg7
F0.0
sg8
F1.0
ssI01
(dp3992
g6
F0.0
sg7
F0.0
sg8
F1.0
sssI6
(dp3993
I00
(dp3994
g6
F0.0
sg7
F0.0
sg8
F1.0
ssI01
(dp3995
g6
F0.0
sg7
F0.0
sg8
F1.0
sssI7
(dp3996
I00
(dp3997
g6
F0.0
sg7
F0.0
sg8
F1.0
ssI01
(dp3998
g6
F0.0
sg7
F0.0
sg8
F1.0
sssI8
(dp3999
I00
(dp4000
g6
F0.0
sg7
F0.0
sg8
F1.0
ssI01
(dp4001
g6
F0.0
sg7
F0.0
sg8
F1.0
sssI9
(dp4002
I00
(dp4003
g6
F0.0
sg7
F0.0
sg8
F1.0
ssI01
(dp4004
g6
F0.0
sg7
F0.0
sg8
F1.0
sssI10
(dp4005
I00
(dp4006
g6
F0.0
sg7
F0.0
sg8
F1.0
ssI01
(dp4007
ssI11
(dp4008
I00
(dp4009
g6
F0.0
sg7
F0.0
sg8
F1.0
ssI01
(dp4010
g6
F0.0
sg7
F0.0
sg8
F1.0
sssI12
(dp4011
I00
(dp4012
g6
F0.0
sg7
F0.0
sg8
F1.0
ssI01
(dp4013
g6
F0.0
sg7
F0.0
sg8
F1.0
sssI13
(dp4014
I00
(dp4015
g6
F0.0
sg7
F0.0
sg8
F1.0
ssI01
(dp4016
g6
F0.0
sg7
F0.0
sg8
F1.0
sssI14
(dp4017
I00
(dp4018
g6
F0.0
sg7
F0.0
sg8
F1.0
ssI01
(dp4019
g6
F0.0
sg7
F0.0
sg8
F1.0
ssssI11
(dp4020
I2
(dp4021
I00
(dp4022
g6
F0.0
sg7
F0.0
sg8
F1.0
ssI01
(dp4023
g6
F0.0
sg7
F0.0
sg8
F1.0
sssI3
(dp4024
I00
(dp4025
g6
F0.0
sg7
F0.0
sg8
F1.0
ssI01
(dp4026
g6
F0.0
sg7
F0.0
sg8
F1.0
sssI4
(dp4027
I00
(dp4028
g6
F0.0
sg7
F0.0
sg8
F1.0
ssI01
(dp4029
g6
F0.0
sg7
F0.0
sg8
F1.0
sssI5
(dp4030
I00
(dp4031
g6
F0.0
sg7
F0.0
sg8
F1.0
ssI01
(dp4032
g6
F0.0
sg7
F0.0
sg8
F1.0
sssI6
(dp4033
I00
(dp4034
g6
F0.0
sg7
F0.0
sg8
F1.0
ssI01
(dp4035
g6
F0.0
sg7
F0.0
sg8
F1.0
sssI7
(dp4036
I00
(dp4037
g6
F0.0
sg7
F0.0
sg8
F1.0
ssI01
(dp4038
g6
F0.0
sg7
F0.0
sg8
F1.0
sssI8
(dp4039
I00
(dp4040
g6
F0.0
sg7
F0.0
sg8
F1.0
ssI01
(dp4041
g6
F0.0
sg7
F0.0
sg8
F1.0
sssI9
(dp4042
I00
(dp4043
g6
F0.0
sg7
F0.0
sg8
F1.0
ssI01
(dp4044
g6
F0.0
sg7
F0.0
sg8
F1.0
sssI10
(dp4045
I00
(dp4046
g6
F0.0
sg7
F0.0
sg8
F1.0
ssI01
(dp4047
g6
F0.0
sg7
F0.0
sg8
F1.0
sssI11
(dp4048
I00
(dp4049
g6
F0.0
sg7
F0.0
sg8
F1.0
ssI01
(dp4050
ssI12
(dp4051
I00
(dp4052
g6
F0.0
sg7
F0.0
sg8
F1.0
ssI01
(dp4053
g6
F0.0
sg7
F0.0
sg8
F1.0
sssI13
(dp4054
I00
(dp4055
g6
F0.0
sg7
F0.0
sg8
F1.0
ssI01
(dp4056
g6
F0.0
sg7
F0.0
sg8
F1.0
sssI14
(dp4057
I00
(dp4058
g6
F0.0
sg7
F0.0
sg8
F1.0
ssI01
(dp4059
g6
F0.0
sg7
F0.0
sg8
F1.0
ssssI12
(dp4060
I2
(dp4061
I00
(dp4062
g6
F0.0
sg7
F0.0
sg8
F1.0
ssI01
(dp4063
g6
F0.0
sg7
F0.0
sg8
F1.0
sssI3
(dp4064
I00
(dp4065
g6
F0.0
sg7
F0.0
sg8
F1.0
ssI01
(dp4066
g6
F0.0
sg7
F0.0
sg8
F1.0
sssI4
(dp4067
I00
(dp4068
g6
F0.0
sg7
F0.0
sg8
F1.0
ssI01
(dp4069
g6
F0.0
sg7
F0.0
sg8
F1.0
sssI5
(dp4070
I00
(dp4071
g6
F0.0
sg7
F0.0
sg8
F1.0
ssI01
(dp4072
g6
F0.0
sg7
F0.0
sg8
F1.0
sssI6
(dp4073
I00
(dp4074
g6
F0.0
sg7
F0.0
sg8
F1.0
ssI01
(dp4075
g6
F0.0
sg7
F0.0
sg8
F1.0
sssI7
(dp4076
I00
(dp4077
g6
F0.0
sg7
F0.0
sg8
F1.0
ssI01
(dp4078
g6
F0.0
sg7
F0.0
sg8
F1.0
sssI8
(dp4079
I00
(dp4080
g6
F0.0
sg7
F0.0
sg8
F1.0
ssI01
(dp4081
g6
F0.0
sg7
F0.0
sg8
F1.0
sssI9
(dp4082
I00
(dp4083
g6
F0.0
sg7
F0.0
sg8
F1.0
ssI01
(dp4084
g6
F0.0
sg7
F0.0
sg8
F1.0
sssI10
(dp4085
I00
(dp4086
g6
F0.0
sg7
F0.0
sg8
F1.0
ssI01
(dp4087
g6
F0.0
sg7
F0.0
sg8
F1.0
sssI11
(dp4088
I00
(dp4089
g6
F0.0
sg7
F0.0
sg8
F1.0
ssI01
(dp4090
g6
F0.0
sg7
F0.0
sg8
F1.0
sssI12
(dp4091
I00
(dp4092
g6
F0.0
sg7
F0.0
sg8
F1.0
ssI01
(dp4093
ssI13
(dp4094
I00
(dp4095
g6
F0.0
sg7
F0.0
sg8
F1.0
ssI01
(dp4096
g6
F0.0
sg7
F0.0
sg8
F1.0
sssI14
(dp4097
I00
(dp4098
g6
F0.0
sg7
F0.0
sg8
F1.0
ssI01
(dp4099
g6
F0.0
sg7
F0.0
sg8
F1.0
ssssI13
(dp4100
I2
(dp4101
I00
(dp4102
g6
F0.0
sg7
F0.0
sg8
F1.0
ssI01
(dp4103
g6
F0.0
sg7
F0.0
sg8
F1.0
sssI3
(dp4104
I00
(dp4105
g6
F0.0
sg7
F0.0
sg8
F1.0
ssI01
(dp4106
g6
F0.0
sg7
F0.0
sg8
F1.0
sssI4
(dp4107
I00
(dp4108
g6
F0.0
sg7
F0.0
sg8
F1.0
ssI01
(dp4109
g6
F0.0
sg7
F0.0
sg8
F1.0
sssI5
(dp4110
I00
(dp4111
g6
F0.0
sg7
F0.0
sg8
F1.0
ssI01
(dp4112
g6
F0.0
sg7
F0.0
sg8
F1.0
sssI6
(dp4113
I00
(dp4114
g6
F0.0
sg7
F0.0
sg8
F1.0
ssI01
(dp4115
g6
F0.0
sg7
F0.0
sg8
F1.0
sssI7
(dp4116
I00
(dp4117
g6
F0.0
sg7
F0.0
sg8
F1.0
ssI01
(dp4118
g6
F0.0
sg7
F0.0
sg8
F1.0
sssI8
(dp4119
I00
(dp4120
g6
F0.0
sg7
F0.0
sg8
F1.0
ssI01
(dp4121
g6
F0.0
sg7
F0.0
sg8
F1.0
sssI9
(dp4122
I00
(dp4123
g6
F0.0
sg7
F0.0
sg8
F1.0
ssI01
(dp4124
g6
F0.0
sg7
F0.0
sg8
F1.0
sssI10
(dp4125
I00
(dp4126
g6
F0.0
sg7
F0.0
sg8
F1.0
ssI01
(dp4127
g6
F0.0
sg7
F0.0
sg8
F1.0
sssI11
(dp4128
I00
(dp4129
g6
F0.0
sg7
F0.0
sg8
F1.0
ssI01
(dp4130
g6
F0.0
sg7
F0.0
sg8
F1.0
sssI12
(dp4131
I00
(dp4132
g6
F0.0
sg7
F0.0
sg8
F1.0
ssI01
(dp4133
g6
F0.0
sg7
F0.0
sg8
F1.0
sssI13
(dp4134
I00
(dp4135
g6
F0.0
sg7
F0.0
sg8
F1.0
ssI01
(dp4136
ssI14
(dp4137
I00
(dp4138
g6
F0.0
sg7
F0.0
sg8
F1.0
ssI01
(dp4139
g6
F0.0
sg7
F0.0
sg8
F1.0
ssssI14
(dp4140
I2
(dp4141
I00
(dp4142
g6
F0.0
sg7
F0.0
sg8
F1.0
ssI01
(dp4143
g6
F0.0
sg7
F0.0
sg8
F1.0
sssI3
(dp4144
I00
(dp4145
g6
F0.0
sg7
F0.0
sg8
F1.0
ssI01
(dp4146
g6
F0.0
sg7
F0.0
sg8
F1.0
sssI4
(dp4147
I00
(dp4148
g6
F0.0
sg7
F0.0
sg8
F1.0
ssI01
(dp4149
g6
F0.0
sg7
F0.0
sg8
F1.0
sssI5
(dp4150
I00
(dp4151
g6
F0.0
sg7
F0.0
sg8
F1.0
ssI01
(dp4152
g6
F0.0
sg7
F0.0
sg8
F1.0
sssI6
(dp4153
I00
(dp4154
g6
F0.0
sg7
F0.0
sg8
F1.0
ssI01
(dp4155
g6
F0.0
sg7
F0.0
sg8
F1.0
sssI7
(dp4156
I00
(dp4157
g6
F0.0
sg7
F0.0
sg8
F1.0
ssI01
(dp4158
g6
F0.0
sg7
F0.0
sg8
F1.0
sssI8
(dp4159
I00
(dp4160
g6
F0.0
sg7
F0.0
sg8
F1.0
ssI01
(dp4161
g6
F0.0
sg7
F0.0
sg8
F1.0
sssI9
(dp4162
I00
(dp4163
g6
F0.0
sg7
F0.0
sg8
F1.0
ssI01
(dp4164
g6
F0.0
sg7
F0.0
sg8
F1.0
sssI10
(dp4165
I00
(dp4166
g6
F0.0
sg7
F0.0
sg8
F1.0
ssI01
(dp4167
g6
F0.0
sg7
F0.0
sg8
F1.0
sssI11
(dp4168
I00
(dp4169
g6
F0.0
sg7
F0.0
sg8
F1.0
ssI01
(dp4170
g6
F0.0
sg7
F0.0
sg8
F1.0
sssI12
(dp4171
I00
(dp4172
g6
F0.0
sg7
F0.0
sg8
F1.0
ssI01
(dp4173
g6
F0.0
sg7
F0.0
sg8
F1.0
sssI13
(dp4174
I00
(dp4175
g6
F0.0
sg7
F0.0
sg8
F1.0
ssI01
(dp4176
g6
F0.0
sg7
F0.0
sg8
F1.0
sssI14
(dp4177
I00
(dp4178
g6
F0.0
sg7
F0.0
sg8
F1.0
ssI01
(dp4179
ssss.